---
triple:          'arm64-apple-darwin'
binary-path:     '/Users/inhabae/Documents/GitHub/Splendor/tests/splendor_bridge_test_bin'
relocations:
  - { offsetInCU: 0x46, offset: 0x46, size: 0x8, addend: 0x0, symName: __ZL15buildStateArrayRK9GameState, symObjAddr: 0x29AC, symBinAddr: 0x100003CBC, symSize: 0x7EC }
  - { offsetInCU: 0x6F, offset: 0x6F, size: 0x8, addend: 0x0, symName: __ZZL15buildStateArrayRK9GameStateE10kEmptyCard, symObjAddr: 0x633C, symBinAddr: 0x10001363C, symSize: 0x0 }
  - { offsetInCU: 0x353C, offset: 0x353C, size: 0x8, addend: 0x0, symName: __ZNSt3__124__put_character_sequenceB8ue170006IcNS_11char_traitsIcEEEERNS_13basic_ostreamIT_T0_EES7_PKS4_m, symObjAddr: 0x34C0, symBinAddr: 0x1000047D0, symSize: 0x1EC }
  - { offsetInCU: 0x6D86, offset: 0x6D86, size: 0x8, addend: 0x0, symName: __ZNSt3__1lsB8ue170006IcNS_11char_traitsIcEENS_9allocatorIcEEEERNS_13basic_ostreamIT_T0_EES9_RKNS_12basic_stringIS6_S7_T1_EE, symObjAddr: 0xC38, symBinAddr: 0x100001F48, symSize: 0x4C }
  - { offsetInCU: 0x6DDE, offset: 0x6DDE, size: 0x8, addend: 0x0, symName: __ZNSt3__14endlB8ue170006IcNS_11char_traitsIcEEEERNS_13basic_ostreamIT_T0_EES7_, symObjAddr: 0xD2C, symBinAddr: 0x10000203C, symSize: 0x58 }
  - { offsetInCU: 0x73D8, offset: 0x73D8, size: 0x8, addend: 0x0, symName: __ZNSt3__17getlineB8ue170006IcNS_11char_traitsIcEENS_9allocatorIcEEEERNS_13basic_istreamIT_T0_EES9_RNS_12basic_stringIS6_S7_T1_EE, symObjAddr: 0xDE8, symBinAddr: 0x1000020F8, symSize: 0x5C }
  - { offsetInCU: 0x7430, offset: 0x7430, size: 0x8, addend: 0x0, symName: __ZNSt3__1eqB8ue170006IcNS_11char_traitsIcEENS_9allocatorIcEEEEbRKNS_12basic_stringIT_T0_T1_EEPKS6_, symObjAddr: 0x1084, symBinAddr: 0x100002394, symSize: 0xAC }
  - { offsetInCU: 0x776A, offset: 0x776A, size: 0x8, addend: 0x0, symName: __ZNSt3__1plB8ue170006IcNS_11char_traitsIcEENS_9allocatorIcEEEENS_12basic_stringIT_T0_T1_EEOS9_PKS6_, symObjAddr: 0x16F8, symBinAddr: 0x100002A08, symSize: 0x40 }
  - { offsetInCU: 0x77C2, offset: 0x77C2, size: 0x8, addend: 0x0, symName: __ZNSt3__110__str_findB8ue170006IcmNS_11char_traitsIcEELm18446744073709551615EEET0_PKT_S3_S6_S3_S3_, symObjAddr: 0x1D88, symBinAddr: 0x100003098, symSize: 0xE4 }
  - { offsetInCU: 0x7869, offset: 0x7869, size: 0x8, addend: 0x0, symName: __ZNSt3__118__search_substringB8ue170006IcNS_11char_traitsIcEEEEPKT_S5_S5_S5_S5_, symObjAddr: 0x1EE8, symBinAddr: 0x1000031F8, symSize: 0x154 }
  - { offsetInCU: 0x7903, offset: 0x7903, size: 0x8, addend: 0x0, symName: __ZNSt3__118__constexpr_memchrB8ue170006IKccEEPT_S3_T0_m, symObjAddr: 0x20E0, symBinAddr: 0x1000033F0, symSize: 0x40 }
  - { offsetInCU: 0x7979, offset: 0x7979, size: 0x8, addend: 0x0, symName: __ZNSt3__112__to_addressB8ue170006IKcEEPT_S3_, symObjAddr: 0x2120, symBinAddr: 0x100003430, symSize: 0x14 }
  - { offsetInCU: 0x79E1, offset: 0x79E1, size: 0x8, addend: 0x0, symName: __ZNSt3__118__constexpr_strlenB8ue170006EPKc, symObjAddr: 0x22EC, symBinAddr: 0x1000035FC, symSize: 0x24 }
  - { offsetInCU: 0x7A0D, offset: 0x7A0D, size: 0x8, addend: 0x0, symName: __ZNSt3__119__str_find_first_ofB8ue170006IcmNS_11char_traitsIcEELm18446744073709551615EEET0_PKT_S3_S6_S3_S3_, symObjAddr: 0x24D8, symBinAddr: 0x1000037E8, symSize: 0xF0 }
  - { offsetInCU: 0x7AB4, offset: 0x7AB4, size: 0x8, addend: 0x0, symName: __ZNSt3__118__find_first_of_ceB8ue170006IPKcS2_RDoFbccEEET_S5_S5_T0_S6_OT1_, symObjAddr: 0x25C8, symBinAddr: 0x1000038D8, symSize: 0xD0 }
  - { offsetInCU: 0x7B4F, offset: 0x7B4F, size: 0x8, addend: 0x0, symName: __ZNSt3__123__str_find_first_not_ofB8ue170006IcmNS_11char_traitsIcEELm18446744073709551615EEET0_PKT_S3_S6_S3_S3_, symObjAddr: 0x26C0, symBinAddr: 0x1000039D0, symSize: 0xDC }
  - { offsetInCU: 0x7C21, offset: 0x7C21, size: 0x8, addend: 0x0, symName: __ZNSt3__122__str_find_last_not_ofB8ue170006IcmNS_11char_traitsIcEELm18446744073709551615EEET0_PKT_S3_S6_S3_S3_, symObjAddr: 0x279C, symBinAddr: 0x100003AAC, symSize: 0xDC }
  - { offsetInCU: 0x8052, offset: 0x8052, size: 0x8, addend: 0x0, symName: __ZNSt3__1lsB8ue170006INS_11char_traitsIcEEEERNS_13basic_ostreamIcT_EES6_PKc, symObjAddr: 0x2964, symBinAddr: 0x100003C74, symSize: 0x48 }
  - { offsetInCU: 0x80A3, offset: 0x80A3, size: 0x8, addend: 0x0, symName: __ZNSt3__116__pad_and_outputB8ue170006IcNS_11char_traitsIcEEEENS_19ostreambuf_iteratorIT_T0_EES6_PKS4_S8_S8_RNS_8ios_baseES4_, symObjAddr: 0x36C8, symBinAddr: 0x1000049D8, symSize: 0x240 }
  - { offsetInCU: 0x8172, offset: 0x8172, size: 0x8, addend: 0x0, symName: __ZNSt3__112__to_addressB8ue170006IcEEPT_S2_, symObjAddr: 0x3BF0, symBinAddr: 0x100004F00, symSize: 0x14 }
  - { offsetInCU: 0x81DA, offset: 0x81DA, size: 0x8, addend: 0x0, symName: __ZNSt3__19use_facetB8ue170006INS_5ctypeIcEEEERKT_RKNS_6localeE, symObjAddr: 0x3DF8, symBinAddr: 0x100005108, symSize: 0x2C }
  - { offsetInCU: 0x86B2, offset: 0x86B2, size: 0x8, addend: 0x0, symName: __ZNSt3__112__to_addressB8ue170006I4CardEEPT_S3_, symObjAddr: 0x495C, symBinAddr: 0x100005C6C, symSize: 0x14 }
  - { offsetInCU: 0x86E7, offset: 0x86E7, size: 0x8, addend: 0x0, symName: __ZNSt3__119__libcpp_deallocateB8ue170006EPvmm, symObjAddr: 0x4A10, symBinAddr: 0x100005D20, symSize: 0x60 }
  - { offsetInCU: 0x874C, offset: 0x874C, size: 0x8, addend: 0x0, symName: __ZNSt3__124__is_overaligned_for_newB8ue170006Em, symObjAddr: 0x4A70, symBinAddr: 0x100005D80, symSize: 0x20 }
  - { offsetInCU: 0x877A, offset: 0x877A, size: 0x8, addend: 0x0, symName: __ZNSt3__127__do_deallocate_handle_sizeB8ue170006IJSt11align_val_tEEEvPvmDpT_, symObjAddr: 0x4A90, symBinAddr: 0x100005DA0, symSize: 0x30 }
  - { offsetInCU: 0x87CD, offset: 0x87CD, size: 0x8, addend: 0x0, symName: __ZNSt3__127__do_deallocate_handle_sizeB8ue170006IJEEEvPvmDpT_, symObjAddr: 0x4AC0, symBinAddr: 0x100005DD0, symSize: 0x28 }
  - { offsetInCU: 0x880B, offset: 0x880B, size: 0x8, addend: 0x0, symName: __ZNSt3__124__libcpp_operator_deleteB8ue170006IJPvSt11align_val_tEEEvDpT_, symObjAddr: 0x4AE8, symBinAddr: 0x100005DF8, symSize: 0x2C }
  - { offsetInCU: 0x8854, offset: 0x8854, size: 0x8, addend: 0x0, symName: __ZNSt3__124__libcpp_operator_deleteB8ue170006IJPvEEEvDpT_, symObjAddr: 0x4B14, symBinAddr: 0x100005E24, symSize: 0x24 }
  - { offsetInCU: 0x8889, offset: 0x8889, size: 0x8, addend: 0x0, symName: __ZNSt3__112__to_addressB8ue170006I5NobleEEPT_S3_, symObjAddr: 0x507C, symBinAddr: 0x10000638C, symSize: 0x14 }
  - { offsetInCU: 0x88BE, offset: 0x88BE, size: 0x8, addend: 0x0, symName: __ZNSt3__17getlineB8ue170006IcNS_11char_traitsIcEENS_9allocatorIcEEEERNS_13basic_istreamIT_T0_EES9_RNS_12basic_stringIS6_S7_T1_EES6_, symObjAddr: 0x5814, symBinAddr: 0x100006B24, symSize: 0x238 }
  - { offsetInCU: 0xBC99, offset: 0xBC99, size: 0x8, addend: 0x0, symName: _main, symObjAddr: 0x0, symBinAddr: 0x100001310, symSize: 0xAC0 }
  - { offsetInCU: 0xBDB1, offset: 0xBDB1, size: 0x8, addend: 0x0, symName: __ZNSt3__112basic_stringIcNS_11char_traitsIcEENS_9allocatorIcEEEC1B8ue170006ILi0EEEPKc, symObjAddr: 0xAC0, symBinAddr: 0x100001DD0, symSize: 0x34 }
  - { offsetInCU: 0xBDF0, offset: 0xBDF0, size: 0x8, addend: 0x0, symName: __ZNSt3__112basic_stringIcNS_11char_traitsIcEENS_9allocatorIcEEEaSB8ue170006EPKc, symObjAddr: 0xAF4, symBinAddr: 0x100001E04, symSize: 0x2C }
  - { offsetInCU: 0xBE25, offset: 0xBE25, size: 0x8, addend: 0x0, symName: __ZNSt3__16vectorI4CardNS_9allocatorIS1_EEEC1B8ue170006Ev, symObjAddr: 0xB20, symBinAddr: 0x100001E30, symSize: 0x2C }
  - { offsetInCU: 0xBE4F, offset: 0xBE4F, size: 0x8, addend: 0x0, symName: __ZNSt3__16vectorI5NobleNS_9allocatorIS1_EEEC1B8ue170006Ev, symObjAddr: 0xB4C, symBinAddr: 0x100001E5C, symSize: 0x2C }
  - { offsetInCU: 0xBE79, offset: 0xBE79, size: 0x8, addend: 0x0, symName: __ZNSt3__16vectorI4CardNS_9allocatorIS1_EEEaSB8ue170006EOS4_, symObjAddr: 0xB78, symBinAddr: 0x100001E88, symSize: 0x34 }
  - { offsetInCU: 0xBEB0, offset: 0xBEB0, size: 0x8, addend: 0x0, symName: __ZNSt3__16vectorI4CardNS_9allocatorIS1_EEED1B8ue170006Ev, symObjAddr: 0xBAC, symBinAddr: 0x100001EBC, symSize: 0x2C }
  - { offsetInCU: 0xBEDA, offset: 0xBEDA, size: 0x8, addend: 0x0, symName: __ZNSt3__16vectorI5NobleNS_9allocatorIS1_EEEaSB8ue170006EOS4_, symObjAddr: 0xBD8, symBinAddr: 0x100001EE8, symSize: 0x34 }
  - { offsetInCU: 0xBF11, offset: 0xBF11, size: 0x8, addend: 0x0, symName: __ZNSt3__16vectorI5NobleNS_9allocatorIS1_EEED1B8ue170006Ev, symObjAddr: 0xC0C, symBinAddr: 0x100001F1C, symSize: 0x2C }
  - { offsetInCU: 0xBF3A, offset: 0xBF3A, size: 0x8, addend: 0x0, symName: __ZL13errorResponseRKNSt3__112basic_stringIcNS_11char_traitsIcEENS_9allocatorIcEEEE, symObjAddr: 0xC84, symBinAddr: 0x100001F94, symSize: 0x7C }
  - { offsetInCU: 0xBF67, offset: 0xBF67, size: 0x8, addend: 0x0, symName: __ZNSt3__113basic_ostreamIcNS_11char_traitsIcEEElsB8ue170006EPFRS3_S4_E, symObjAddr: 0xD00, symBinAddr: 0x100002010, symSize: 0x2C }
  - { offsetInCU: 0xC146, offset: 0xC146, size: 0x8, addend: 0x0, symName: __ZN9GameStateC1Ev, symObjAddr: 0xD90, symBinAddr: 0x1000020A0, symSize: 0x2C }
  - { offsetInCU: 0xC172, offset: 0xC172, size: 0x8, addend: 0x0, symName: __ZNSt3__112basic_stringIcNS_11char_traitsIcEENS_9allocatorIcEEEC1B8ue170006Ev, symObjAddr: 0xDBC, symBinAddr: 0x1000020CC, symSize: 0x2C }
  - { offsetInCU: 0xC19C, offset: 0xC19C, size: 0x8, addend: 0x0, symName: __ZNKSt3__19basic_iosIcNS_11char_traitsIcEEEcvbB8ue170006Ev, symObjAddr: 0xE44, symBinAddr: 0x100002154, symSize: 0x2C }
  - { offsetInCU: 0xC1C2, offset: 0xC1C2, size: 0x8, addend: 0x0, symName: __ZNKSt3__112basic_stringIcNS_11char_traitsIcEENS_9allocatorIcEEE5emptyB8ue170006Ev, symObjAddr: 0xE70, symBinAddr: 0x100002180, symSize: 0x30 }
  - { offsetInCU: 0xC1EC, offset: 0xC1EC, size: 0x8, addend: 0x0, symName: __ZN11simple_json10extractStrERKNSt3__112basic_stringIcNS0_11char_traitsIcEENS0_9allocatorIcEEEES8_, symObjAddr: 0xEA0, symBinAddr: 0x1000021B0, symSize: 0x1E4 }
  - { offsetInCU: 0xC260, offset: 0xC260, size: 0x8, addend: 0x0, symName: __ZN11simple_json10extractIntERKNSt3__112basic_stringIcNS0_11char_traitsIcEENS0_9allocatorIcEEEES8_i, symObjAddr: 0x1130, symBinAddr: 0x100002440, symSize: 0x298 }
  - { offsetInCU: 0xC2F3, offset: 0xC2F3, size: 0x8, addend: 0x0, symName: __ZL10okResponseRK9GameState, symObjAddr: 0x13C8, symBinAddr: 0x1000026D8, symSize: 0x2E4 }
  - { offsetInCU: 0xC395, offset: 0xC395, size: 0x8, addend: 0x0, symName: __ZNSt3__15arrayIiLm66EEixB8ue170006Em, symObjAddr: 0x16AC, symBinAddr: 0x1000029BC, symSize: 0x20 }
  - { offsetInCU: 0xC3C9, offset: 0xC3C9, size: 0x8, addend: 0x0, symName: __ZN9GameStateD1Ev, symObjAddr: 0x16CC, symBinAddr: 0x1000029DC, symSize: 0x2C }
  - { offsetInCU: 0xC3F5, offset: 0xC3F5, size: 0x8, addend: 0x0, symName: __ZNSt3__112basic_stringIcNS_11char_traitsIcEENS_9allocatorIcEEEC1B8ue170006EOS5_, symObjAddr: 0x1738, symBinAddr: 0x100002A48, symSize: 0x34 }
  - { offsetInCU: 0xC42E, offset: 0xC42E, size: 0x8, addend: 0x0, symName: __ZNSt3__112basic_stringIcNS_11char_traitsIcEENS_9allocatorIcEEEC2B8ue170006EOS5_, symObjAddr: 0x176C, symBinAddr: 0x100002A7C, symSize: 0x50 }
  - { offsetInCU: 0xC467, offset: 0xC467, size: 0x8, addend: 0x0, symName: __ZNSt3__112basic_stringIcNS_11char_traitsIcEENS_9allocatorIcEEE14__default_initB8ue170006Ev, symObjAddr: 0x17BC, symBinAddr: 0x100002ACC, symSize: 0x40 }
  - { offsetInCU: 0xC48D, offset: 0xC48D, size: 0x8, addend: 0x0, symName: __ZNSt3__117__compressed_pairINS_12basic_stringIcNS_11char_traitsIcEENS_9allocatorIcEEE5__repES5_E5firstB8ue170006Ev, symObjAddr: 0x17FC, symBinAddr: 0x100002B0C, symSize: 0x24 }
  - { offsetInCU: 0xC4B3, offset: 0xC4B3, size: 0x8, addend: 0x0, symName: __ZNSt3__122__compressed_pair_elemINS_12basic_stringIcNS_11char_traitsIcEENS_9allocatorIcEEE5__repELi0ELb0EE5__getB8ue170006Ev, symObjAddr: 0x1820, symBinAddr: 0x100002B30, symSize: 0x14 }
  - { offsetInCU: 0xC4D9, offset: 0xC4D9, size: 0x8, addend: 0x0, symName: __ZN9GameStateC2Ev, symObjAddr: 0x1834, symBinAddr: 0x100002B44, symSize: 0x120 }
  - { offsetInCU: 0xC50A, offset: 0xC50A, size: 0x8, addend: 0x0, symName: __ZN6PlayerC1Ev, symObjAddr: 0x1954, symBinAddr: 0x100002C64, symSize: 0x2C }
  - { offsetInCU: 0xC536, offset: 0xC536, size: 0x8, addend: 0x0, symName: __ZN6TokensC1Ev, symObjAddr: 0x1980, symBinAddr: 0x100002C90, symSize: 0x2C }
  - { offsetInCU: 0xC562, offset: 0xC562, size: 0x8, addend: 0x0, symName: __ZNSt3__15arrayI4CardLm4EEC1Ev, symObjAddr: 0x19AC, symBinAddr: 0x100002CBC, symSize: 0x2C }
  - { offsetInCU: 0xC58E, offset: 0xC58E, size: 0x8, addend: 0x0, symName: __ZNSt3__15arrayI5NobleLm3EEC1Ev, symObjAddr: 0x19D8, symBinAddr: 0x100002CE8, symSize: 0x2C }
  - { offsetInCU: 0xC5BA, offset: 0xC5BA, size: 0x8, addend: 0x0, symName: __ZN6PlayerC2Ev, symObjAddr: 0x1A04, symBinAddr: 0x100002D14, symSize: 0x60 }
  - { offsetInCU: 0xC5E6, offset: 0xC5E6, size: 0x8, addend: 0x0, symName: __ZN6TokensC2Ev, symObjAddr: 0x1A64, symBinAddr: 0x100002D74, symSize: 0x2C }
  - { offsetInCU: 0xC612, offset: 0xC612, size: 0x8, addend: 0x0, symName: __ZNSt3__15arrayI4CardLm4EEC2Ev, symObjAddr: 0x1A90, symBinAddr: 0x100002DA0, symSize: 0x68 }
  - { offsetInCU: 0xC643, offset: 0xC643, size: 0x8, addend: 0x0, symName: __ZN4CardC1Ev, symObjAddr: 0x1AF8, symBinAddr: 0x100002E08, symSize: 0x2C }
  - { offsetInCU: 0xC66F, offset: 0xC66F, size: 0x8, addend: 0x0, symName: __ZN4CardC2Ev, symObjAddr: 0x1B24, symBinAddr: 0x100002E34, symSize: 0x40 }
  - { offsetInCU: 0xC69B, offset: 0xC69B, size: 0x8, addend: 0x0, symName: __ZNSt3__15arrayI5NobleLm3EEC2Ev, symObjAddr: 0x1B64, symBinAddr: 0x100002E74, symSize: 0x68 }
  - { offsetInCU: 0xC6CC, offset: 0xC6CC, size: 0x8, addend: 0x0, symName: __ZN5NobleC1Ev, symObjAddr: 0x1BCC, symBinAddr: 0x100002EDC, symSize: 0x2C }
  - { offsetInCU: 0xC6F8, offset: 0xC6F8, size: 0x8, addend: 0x0, symName: __ZN5NobleC2Ev, symObjAddr: 0x1BF8, symBinAddr: 0x100002F08, symSize: 0x3C }
  - { offsetInCU: 0xC724, offset: 0xC724, size: 0x8, addend: 0x0, symName: __ZNKSt3__112basic_stringIcNS_11char_traitsIcEENS_9allocatorIcEEE4findB8ue170006ERKS5_m, symObjAddr: 0x1C34, symBinAddr: 0x100002F44, symSize: 0x78 }
  - { offsetInCU: 0xC76A, offset: 0xC76A, size: 0x8, addend: 0x0, symName: __ZNKSt3__112basic_stringIcNS_11char_traitsIcEENS_9allocatorIcEEE4findB8ue170006EPKcm, symObjAddr: 0x1CAC, symBinAddr: 0x100002FBC, symSize: 0x74 }
  - { offsetInCU: 0xC7B0, offset: 0xC7B0, size: 0x8, addend: 0x0, symName: __ZNKSt3__112basic_stringIcNS_11char_traitsIcEENS_9allocatorIcEEE6substrB8ue170006Emm, symObjAddr: 0x1D20, symBinAddr: 0x100003030, symSize: 0x68 }
  - { offsetInCU: 0xC7F4, offset: 0xC7F4, size: 0x8, addend: 0x0, symName: __ZNKSt3__112basic_stringIcNS_11char_traitsIcEENS_9allocatorIcEEE4dataB8ue170006Ev, symObjAddr: 0x1E6C, symBinAddr: 0x10000317C, symSize: 0x28 }
  - { offsetInCU: 0xC81A, offset: 0xC81A, size: 0x8, addend: 0x0, symName: __ZNKSt3__112basic_stringIcNS_11char_traitsIcEENS_9allocatorIcEEE4sizeB8ue170006Ev, symObjAddr: 0x1E94, symBinAddr: 0x1000031A4, symSize: 0x54 }
  - { offsetInCU: 0xC840, offset: 0xC840, size: 0x8, addend: 0x0, symName: __ZNSt3__111char_traitsIcE4findB8ue170006EPKcmRS2_, symObjAddr: 0x203C, symBinAddr: 0x10000334C, symSize: 0x70 }
  - { offsetInCU: 0xC87F, offset: 0xC87F, size: 0x8, addend: 0x0, symName: __ZNSt3__111char_traitsIcE7compareB8ue170006EPKcS3_m, symObjAddr: 0x20AC, symBinAddr: 0x1000033BC, symSize: 0x34 }
  - { offsetInCU: 0xC8BE, offset: 0xC8BE, size: 0x8, addend: 0x0, symName: __ZNKSt3__112basic_stringIcNS_11char_traitsIcEENS_9allocatorIcEEE13__get_pointerB8ue170006Ev, symObjAddr: 0x2134, symBinAddr: 0x100003444, symSize: 0x54 }
  - { offsetInCU: 0xC8E4, offset: 0xC8E4, size: 0x8, addend: 0x0, symName: __ZNKSt3__112basic_stringIcNS_11char_traitsIcEENS_9allocatorIcEEE9__is_longB8ue170006Ev, symObjAddr: 0x2188, symBinAddr: 0x100003498, symSize: 0x38 }
  - { offsetInCU: 0xC90A, offset: 0xC90A, size: 0x8, addend: 0x0, symName: __ZNKSt3__112basic_stringIcNS_11char_traitsIcEENS_9allocatorIcEEE18__get_long_pointerB8ue170006Ev, symObjAddr: 0x21C0, symBinAddr: 0x1000034D0, symSize: 0x28 }
  - { offsetInCU: 0xC930, offset: 0xC930, size: 0x8, addend: 0x0, symName: __ZNKSt3__112basic_stringIcNS_11char_traitsIcEENS_9allocatorIcEEE19__get_short_pointerB8ue170006Ev, symObjAddr: 0x21E8, symBinAddr: 0x1000034F8, symSize: 0x28 }
  - { offsetInCU: 0xC956, offset: 0xC956, size: 0x8, addend: 0x0, symName: __ZNKSt3__117__compressed_pairINS_12basic_stringIcNS_11char_traitsIcEENS_9allocatorIcEEE5__repES5_E5firstB8ue170006Ev, symObjAddr: 0x2210, symBinAddr: 0x100003520, symSize: 0x24 }
  - { offsetInCU: 0xC97C, offset: 0xC97C, size: 0x8, addend: 0x0, symName: __ZNKSt3__122__compressed_pair_elemINS_12basic_stringIcNS_11char_traitsIcEENS_9allocatorIcEEE5__repELi0ELb0EE5__getB8ue170006Ev, symObjAddr: 0x2234, symBinAddr: 0x100003544, symSize: 0x14 }
  - { offsetInCU: 0xC9A2, offset: 0xC9A2, size: 0x8, addend: 0x0, symName: __ZNSt3__114pointer_traitsIPKcE10pointer_toB8ue170006ERS1_, symObjAddr: 0x2248, symBinAddr: 0x100003558, symSize: 0x14 }
  - { offsetInCU: 0xC9C5, offset: 0xC9C5, size: 0x8, addend: 0x0, symName: __ZNKSt3__112basic_stringIcNS_11char_traitsIcEENS_9allocatorIcEEE15__get_long_sizeB8ue170006Ev, symObjAddr: 0x225C, symBinAddr: 0x10000356C, symSize: 0x28 }
  - { offsetInCU: 0xC9EB, offset: 0xC9EB, size: 0x8, addend: 0x0, symName: __ZNKSt3__112basic_stringIcNS_11char_traitsIcEENS_9allocatorIcEEE16__get_short_sizeB8ue170006Ev, symObjAddr: 0x2284, symBinAddr: 0x100003594, symSize: 0x34 }
  - { offsetInCU: 0xCA11, offset: 0xCA11, size: 0x8, addend: 0x0, symName: __ZNSt3__111char_traitsIcE6lengthB8ue170006EPKc, symObjAddr: 0x22B8, symBinAddr: 0x1000035C8, symSize: 0x34 }
  - { offsetInCU: 0xCA34, offset: 0xCA34, size: 0x8, addend: 0x0, symName: __ZNSt3__19allocatorIcEC1B8ue170006Ev, symObjAddr: 0x2310, symBinAddr: 0x100003620, symSize: 0x2C }
  - { offsetInCU: 0xCA5E, offset: 0xCA5E, size: 0x8, addend: 0x0, symName: __ZNSt3__19allocatorIcEC2B8ue170006Ev, symObjAddr: 0x233C, symBinAddr: 0x10000364C, symSize: 0x2C }
  - { offsetInCU: 0xCA88, offset: 0xCA88, size: 0x8, addend: 0x0, symName: __ZNSt3__116__non_trivial_ifILb1ENS_9allocatorIcEEEC2B8ue170006Ev, symObjAddr: 0x2368, symBinAddr: 0x100003678, symSize: 0x14 }
  - { offsetInCU: 0xCAB2, offset: 0xCAB2, size: 0x8, addend: 0x0, symName: __ZNKSt3__112basic_stringIcNS_11char_traitsIcEENS_9allocatorIcEEE13find_first_ofB8ue170006EPKcm, symObjAddr: 0x237C, symBinAddr: 0x10000368C, symSize: 0x74 }
  - { offsetInCU: 0xCAF8, offset: 0xCAF8, size: 0x8, addend: 0x0, symName: __ZNKSt3__112basic_stringIcNS_11char_traitsIcEENS_9allocatorIcEEE17find_first_not_ofB8ue170006EPKcm, symObjAddr: 0x23F0, symBinAddr: 0x100003700, symSize: 0x74 }
  - { offsetInCU: 0xCB3E, offset: 0xCB3E, size: 0x8, addend: 0x0, symName: __ZNKSt3__112basic_stringIcNS_11char_traitsIcEENS_9allocatorIcEEE16find_last_not_ofB8ue170006EPKcm, symObjAddr: 0x2464, symBinAddr: 0x100003774, symSize: 0x74 }
  - { offsetInCU: 0xCB84, offset: 0xCB84, size: 0x8, addend: 0x0, symName: __ZNSt3__111char_traitsIcE2eqEcc, symObjAddr: 0x2698, symBinAddr: 0x1000039A8, symSize: 0x28 }
  - { offsetInCU: 0xCC05, offset: 0xCC05, size: 0x8, addend: 0x0, symName: __ZNSt3__119basic_ostringstreamIcNS_11char_traitsIcEENS_9allocatorIcEEEC1B8ue170006Ev, symObjAddr: 0x2878, symBinAddr: 0x100003B88, symSize: 0xEC }
  - { offsetInCU: 0xCC2E, offset: 0xCC2E, size: 0x8, addend: 0x0, symName: __ZL10maskToJsonRKNSt3__15arrayIiLm66EEE, symObjAddr: 0x3198, symBinAddr: 0x1000044A8, symSize: 0x110 }
  - { offsetInCU: 0xCC7D, offset: 0xCC7D, size: 0x8, addend: 0x0, symName: __ZNKSt3__119basic_ostringstreamIcNS_11char_traitsIcEENS_9allocatorIcEEE3strB8ue170006Ev, symObjAddr: 0x32A8, symBinAddr: 0x1000045B8, symSize: 0x30 }
  - { offsetInCU: 0xCCA8, offset: 0xCCA8, size: 0x8, addend: 0x0, symName: __ZNSt3__119basic_ostringstreamIcNS_11char_traitsIcEENS_9allocatorIcEEED1Ev, symObjAddr: 0x32D8, symBinAddr: 0x1000045E8, symSize: 0x40 }
  - { offsetInCU: 0xCCD5, offset: 0xCCD5, size: 0x8, addend: 0x0, symName: __ZNSt3__19basic_iosIcNS_11char_traitsIcEEEC2B8ue170006Ev, symObjAddr: 0x3318, symBinAddr: 0x100004628, symSize: 0x44 }
  - { offsetInCU: 0xCCFF, offset: 0xCCFF, size: 0x8, addend: 0x0, symName: __ZNSt3__113basic_ostreamIcNS_11char_traitsIcEEEC2B8ue170006EPNS_15basic_streambufIcS2_EE, symObjAddr: 0x335C, symBinAddr: 0x10000466C, symSize: 0x60 }
  - { offsetInCU: 0xCD44, offset: 0xCD44, size: 0x8, addend: 0x0, symName: __ZNSt3__115basic_stringbufIcNS_11char_traitsIcEENS_9allocatorIcEEEC1B8ue170006Ej, symObjAddr: 0x33BC, symBinAddr: 0x1000046CC, symSize: 0x34 }
  - { offsetInCU: 0xCD7D, offset: 0xCD7D, size: 0x8, addend: 0x0, symName: __ZNSt3__18ios_baseC2B8ue170006Ev, symObjAddr: 0x33F0, symBinAddr: 0x100004700, symSize: 0x24 }
  - { offsetInCU: 0xCDA7, offset: 0xCDA7, size: 0x8, addend: 0x0, symName: __ZNSt3__19basic_iosIcNS_11char_traitsIcEEE4initB8ue170006EPNS_15basic_streambufIcS2_EE, symObjAddr: 0x3414, symBinAddr: 0x100004724, symSize: 0x44 }
  - { offsetInCU: 0xCDDE, offset: 0xCDDE, size: 0x8, addend: 0x0, symName: __ZNSt3__111char_traitsIcE3eofB8ue170006Ev, symObjAddr: 0x3458, symBinAddr: 0x100004768, symSize: 0x8 }
  - { offsetInCU: 0xCDF2, offset: 0xCDF2, size: 0x8, addend: 0x0, symName: __ZNSt3__115basic_stringbufIcNS_11char_traitsIcEENS_9allocatorIcEEEC2B8ue170006Ej, symObjAddr: 0x3460, symBinAddr: 0x100004770, symSize: 0x60 }
  - { offsetInCU: 0xCE49, offset: 0xCE49, size: 0x8, addend: 0x0, symName: __ZNKSt3__113basic_ostreamIcNS_11char_traitsIcEEE6sentrycvbB8ue170006Ev, symObjAddr: 0x36AC, symBinAddr: 0x1000049BC, symSize: 0x1C }
  - { offsetInCU: 0xCE6F, offset: 0xCE6F, size: 0x8, addend: 0x0, symName: __ZNSt3__119ostreambuf_iteratorIcNS_11char_traitsIcEEEC1B8ue170006ERNS_13basic_ostreamIcS2_EE, symObjAddr: 0x3908, symBinAddr: 0x100004C18, symSize: 0x34 }
  - { offsetInCU: 0xCEA7, offset: 0xCEA7, size: 0x8, addend: 0x0, symName: __ZNKSt3__18ios_base5flagsB8ue170006Ev, symObjAddr: 0x393C, symBinAddr: 0x100004C4C, symSize: 0x18 }
  - { offsetInCU: 0xCECF, offset: 0xCECF, size: 0x8, addend: 0x0, symName: __ZNKSt3__19basic_iosIcNS_11char_traitsIcEEE4fillB8ue170006Ev, symObjAddr: 0x3954, symBinAddr: 0x100004C64, symSize: 0x64 }
  - { offsetInCU: 0xCEF7, offset: 0xCEF7, size: 0x8, addend: 0x0, symName: __ZNKSt3__119ostreambuf_iteratorIcNS_11char_traitsIcEEE6failedB8ue170006Ev, symObjAddr: 0x39B8, symBinAddr: 0x100004CC8, symSize: 0x24 }
  - { offsetInCU: 0xCF1D, offset: 0xCF1D, size: 0x8, addend: 0x0, symName: __ZNSt3__19basic_iosIcNS_11char_traitsIcEEE8setstateB8ue170006Ej, symObjAddr: 0x39DC, symBinAddr: 0x100004CEC, symSize: 0x2C }
  - { offsetInCU: 0xCF52, offset: 0xCF52, size: 0x8, addend: 0x0, symName: __ZNKSt3__18ios_base5widthB8ue170006Ev, symObjAddr: 0x3A08, symBinAddr: 0x100004D18, symSize: 0x18 }
  - { offsetInCU: 0xCF7A, offset: 0xCF7A, size: 0x8, addend: 0x0, symName: __ZNSt3__115basic_streambufIcNS_11char_traitsIcEEE5sputnB8ue170006EPKcl, symObjAddr: 0x3A20, symBinAddr: 0x100004D30, symSize: 0x3C }
  - { offsetInCU: 0xCFBC, offset: 0xCFBC, size: 0x8, addend: 0x0, symName: __ZNSt3__112basic_stringIcNS_11char_traitsIcEENS_9allocatorIcEEEC1B8ue170006Emc, symObjAddr: 0x3A5C, symBinAddr: 0x100004D6C, symSize: 0x3C }
  - { offsetInCU: 0xD004, offset: 0xD004, size: 0x8, addend: 0x0, symName: __ZNSt3__112basic_stringIcNS_11char_traitsIcEENS_9allocatorIcEEE4dataB8ue170006Ev, symObjAddr: 0x3A98, symBinAddr: 0x100004DA8, symSize: 0x28 }
  - { offsetInCU: 0xD02A, offset: 0xD02A, size: 0x8, addend: 0x0, symName: __ZNSt3__18ios_base5widthB8ue170006El, symObjAddr: 0x3AC0, symBinAddr: 0x100004DD0, symSize: 0x2C }
  - { offsetInCU: 0xD070, offset: 0xD070, size: 0x8, addend: 0x0, symName: __ZNSt3__112basic_stringIcNS_11char_traitsIcEENS_9allocatorIcEEEC2B8ue170006Emc, symObjAddr: 0x3AEC, symBinAddr: 0x100004DFC, symSize: 0x4C }
  - { offsetInCU: 0xD0BD, offset: 0xD0BD, size: 0x8, addend: 0x0, symName: __ZNSt3__117__compressed_pairINS_12basic_stringIcNS_11char_traitsIcEENS_9allocatorIcEEE5__repES5_EC1B8ue170006INS_18__default_init_tagESA_EEOT_OT0_, symObjAddr: 0x3B38, symBinAddr: 0x100004E48, symSize: 0x3C }
  - { offsetInCU: 0xD115, offset: 0xD115, size: 0x8, addend: 0x0, symName: __ZNSt3__117__compressed_pairINS_12basic_stringIcNS_11char_traitsIcEENS_9allocatorIcEEE5__repES5_EC2B8ue170006INS_18__default_init_tagESA_EEOT_OT0_, symObjAddr: 0x3B74, symBinAddr: 0x100004E84, symSize: 0x3C }
  - { offsetInCU: 0xD16D, offset: 0xD16D, size: 0x8, addend: 0x0, symName: __ZNSt3__122__compressed_pair_elemINS_12basic_stringIcNS_11char_traitsIcEENS_9allocatorIcEEE5__repELi0ELb0EEC2B8ue170006ENS_18__default_init_tagE, symObjAddr: 0x3BB0, symBinAddr: 0x100004EC0, symSize: 0x14 }
  - { offsetInCU: 0xD1A2, offset: 0xD1A2, size: 0x8, addend: 0x0, symName: __ZNSt3__122__compressed_pair_elemINS_9allocatorIcEELi1ELb1EEC2B8ue170006ENS_18__default_init_tagE, symObjAddr: 0x3BC4, symBinAddr: 0x100004ED4, symSize: 0x2C }
  - { offsetInCU: 0xD1D7, offset: 0xD1D7, size: 0x8, addend: 0x0, symName: __ZNSt3__112basic_stringIcNS_11char_traitsIcEENS_9allocatorIcEEE13__get_pointerB8ue170006Ev, symObjAddr: 0x3C04, symBinAddr: 0x100004F14, symSize: 0x54 }
  - { offsetInCU: 0xD1FD, offset: 0xD1FD, size: 0x8, addend: 0x0, symName: __ZNSt3__112basic_stringIcNS_11char_traitsIcEENS_9allocatorIcEEE18__get_long_pointerB8ue170006Ev, symObjAddr: 0x3C58, symBinAddr: 0x100004F68, symSize: 0x28 }
  - { offsetInCU: 0xD223, offset: 0xD223, size: 0x8, addend: 0x0, symName: __ZNSt3__112basic_stringIcNS_11char_traitsIcEENS_9allocatorIcEEE19__get_short_pointerB8ue170006Ev, symObjAddr: 0x3C80, symBinAddr: 0x100004F90, symSize: 0x28 }
  - { offsetInCU: 0xD249, offset: 0xD249, size: 0x8, addend: 0x0, symName: __ZNSt3__114pointer_traitsIPcE10pointer_toB8ue170006ERc, symObjAddr: 0x3CA8, symBinAddr: 0x100004FB8, symSize: 0x14 }
  - { offsetInCU: 0xD26C, offset: 0xD26C, size: 0x8, addend: 0x0, symName: __ZNSt3__119ostreambuf_iteratorIcNS_11char_traitsIcEEEC2B8ue170006ERNS_13basic_ostreamIcS2_EE, symObjAddr: 0x3CBC, symBinAddr: 0x100004FCC, symSize: 0x54 }
  - { offsetInCU: 0xD2A4, offset: 0xD2A4, size: 0x8, addend: 0x0, symName: __ZNKSt3__19basic_iosIcNS_11char_traitsIcEEE5rdbufB8ue170006Ev, symObjAddr: 0x3D10, symBinAddr: 0x100005020, symSize: 0x24 }
  - { offsetInCU: 0xD2CC, offset: 0xD2CC, size: 0x8, addend: 0x0, symName: __ZNKSt3__18ios_base5rdbufB8ue170006Ev, symObjAddr: 0x3D34, symBinAddr: 0x100005044, symSize: 0x18 }
  - { offsetInCU: 0xD2F2, offset: 0xD2F2, size: 0x8, addend: 0x0, symName: __ZNSt3__111char_traitsIcE11eq_int_typeB8ue170006Eii, symObjAddr: 0x3D4C, symBinAddr: 0x10000505C, symSize: 0x28 }
  - { offsetInCU: 0xD325, offset: 0xD325, size: 0x8, addend: 0x0, symName: __ZNKSt3__19basic_iosIcNS_11char_traitsIcEEE5widenB8ue170006Ec, symObjAddr: 0x3D74, symBinAddr: 0x100005084, symSize: 0x84 }
  - { offsetInCU: 0xD393, offset: 0xD393, size: 0x8, addend: 0x0, symName: __ZNKSt3__15ctypeIcE5widenB8ue170006Ec, symObjAddr: 0x3E24, symBinAddr: 0x100005134, symSize: 0x38 }
  - { offsetInCU: 0xD3C8, offset: 0xD3C8, size: 0x8, addend: 0x0, symName: __ZNSt3__18ios_base8setstateB8ue170006Ej, symObjAddr: 0x3E5C, symBinAddr: 0x10000516C, symSize: 0x34 }
  - { offsetInCU: 0xD413, offset: 0xD413, size: 0x8, addend: 0x0, symName: '__ZZL15buildStateArrayRK9GameStateENK3$_0clEv', symObjAddr: 0x3E90, symBinAddr: 0x1000051A0, symSize: 0x58 }
  - { offsetInCU: 0xD43D, offset: 0xD43D, size: 0x8, addend: 0x0, symName: __ZNKSt3__16vectorI4CardNS_9allocatorIS1_EEE4sizeB8ue170006Ev, symObjAddr: 0x3EE8, symBinAddr: 0x1000051F8, symSize: 0x28 }
  - { offsetInCU: 0xD463, offset: 0xD463, size: 0x8, addend: 0x0, symName: __ZL10appendCardRNSt3__119basic_ostringstreamIcNS_11char_traitsIcEENS_9allocatorIcEEEERK4CardRb, symObjAddr: 0x3F10, symBinAddr: 0x100005220, symSize: 0x220 }
  - { offsetInCU: 0xD4FE, offset: 0xD4FE, size: 0x8, addend: 0x0, symName: __ZNKSt3__16vectorI4CardNS_9allocatorIS1_EEEixB8ue170006Em, symObjAddr: 0x4130, symBinAddr: 0x100005440, symSize: 0x2C }
  - { offsetInCU: 0xD535, offset: 0xD535, size: 0x8, addend: 0x0, symName: __ZNKSt3__15arrayI4CardLm4EEixB8ue170006Em, symObjAddr: 0x415C, symBinAddr: 0x10000546C, symSize: 0x28 }
  - { offsetInCU: 0xD569, offset: 0xD569, size: 0x8, addend: 0x0, symName: __ZNKSt3__15arrayI5NobleLm3EEixB8ue170006Em, symObjAddr: 0x4184, symBinAddr: 0x100005494, symSize: 0x20 }
  - { offsetInCU: 0xD5A7, offset: 0xD5A7, size: 0x8, addend: 0x0, symName: '__ZZL10appendCardRNSt3__119basic_ostringstreamIcNS_11char_traitsIcEENS_9allocatorIcEEEERK4CardRbENK3$_1clEv', symObjAddr: 0x41A4, symBinAddr: 0x1000054B4, symSize: 0x58 }
  - { offsetInCU: 0xD5D1, offset: 0xD5D1, size: 0x8, addend: 0x0, symName: __ZNKSt3__15arrayIiLm66EEixB8ue170006Em, symObjAddr: 0x41FC, symBinAddr: 0x10000550C, symSize: 0x20 }
  - { offsetInCU: 0xD605, offset: 0xD605, size: 0x8, addend: 0x0, symName: __ZNSt3__119basic_ostringstreamIcNS_11char_traitsIcEENS_9allocatorIcEEED2Ev, symObjAddr: 0x421C, symBinAddr: 0x10000552C, symSize: 0x64 }
  - { offsetInCU: 0xD63F, offset: 0xD63F, size: 0x8, addend: 0x0, symName: __ZTv0_n24_NSt3__119basic_ostringstreamIcNS_11char_traitsIcEENS_9allocatorIcEEED1Ev, symObjAddr: 0x4280, symBinAddr: 0x100005590, symSize: 0x28 }
  - { offsetInCU: 0xD65B, offset: 0xD65B, size: 0x8, addend: 0x0, symName: __ZNSt3__115basic_stringbufIcNS_11char_traitsIcEENS_9allocatorIcEEED1Ev, symObjAddr: 0x42A8, symBinAddr: 0x1000055B8, symSize: 0x2C }
  - { offsetInCU: 0xD688, offset: 0xD688, size: 0x8, addend: 0x0, symName: __ZNSt3__115basic_stringbufIcNS_11char_traitsIcEENS_9allocatorIcEEED2Ev, symObjAddr: 0x42D4, symBinAddr: 0x1000055E4, symSize: 0x48 }
  - { offsetInCU: 0xD6B5, offset: 0xD6B5, size: 0x8, addend: 0x0, symName: __ZN9GameStateD2Ev, symObjAddr: 0x431C, symBinAddr: 0x10000562C, symSize: 0xAC }
  - { offsetInCU: 0xD6E1, offset: 0xD6E1, size: 0x8, addend: 0x0, symName: __ZN6PlayerD1Ev, symObjAddr: 0x43C8, symBinAddr: 0x1000056D8, symSize: 0x2C }
  - { offsetInCU: 0xD70D, offset: 0xD70D, size: 0x8, addend: 0x0, symName: __ZN6PlayerD2Ev, symObjAddr: 0x43F4, symBinAddr: 0x100005704, symSize: 0x48 }
  - { offsetInCU: 0xD739, offset: 0xD739, size: 0x8, addend: 0x0, symName: __ZNSt3__112basic_stringIcNS_11char_traitsIcEENS_9allocatorIcEEEC2B8ue170006ILi0EEEPKc, symObjAddr: 0x443C, symBinAddr: 0x10000574C, symSize: 0x58 }
  - { offsetInCU: 0xD778, offset: 0xD778, size: 0x8, addend: 0x0, symName: __ZNSt3__16vectorI4CardNS_9allocatorIS1_EEEC2B8ue170006Ev, symObjAddr: 0x4494, symBinAddr: 0x1000057A4, symSize: 0x4C }
  - { offsetInCU: 0xD7A7, offset: 0xD7A7, size: 0x8, addend: 0x0, symName: __ZNSt3__117__compressed_pairIP4CardNS_9allocatorIS1_EEEC1B8ue170006IDnNS_18__default_init_tagEEEOT_OT0_, symObjAddr: 0x44E0, symBinAddr: 0x1000057F0, symSize: 0x3C }
  - { offsetInCU: 0xD7FF, offset: 0xD7FF, size: 0x8, addend: 0x0, symName: __ZNSt3__117__compressed_pairIP4CardNS_9allocatorIS1_EEEC2B8ue170006IDnNS_18__default_init_tagEEEOT_OT0_, symObjAddr: 0x451C, symBinAddr: 0x10000582C, symSize: 0x40 }
  - { offsetInCU: 0xD857, offset: 0xD857, size: 0x8, addend: 0x0, symName: __ZNSt3__122__compressed_pair_elemIP4CardLi0ELb0EEC2B8ue170006IDnvEEOT_, symObjAddr: 0x455C, symBinAddr: 0x10000586C, symSize: 0x1C }
  - { offsetInCU: 0xD899, offset: 0xD899, size: 0x8, addend: 0x0, symName: __ZNSt3__122__compressed_pair_elemINS_9allocatorI4CardEELi1ELb1EEC2B8ue170006ENS_18__default_init_tagE, symObjAddr: 0x4578, symBinAddr: 0x100005888, symSize: 0x2C }
  - { offsetInCU: 0xD8CE, offset: 0xD8CE, size: 0x8, addend: 0x0, symName: __ZNSt3__19allocatorI4CardEC2B8ue170006Ev, symObjAddr: 0x45A4, symBinAddr: 0x1000058B4, symSize: 0x2C }
  - { offsetInCU: 0xD8F8, offset: 0xD8F8, size: 0x8, addend: 0x0, symName: __ZNSt3__116__non_trivial_ifILb1ENS_9allocatorI4CardEEEC2B8ue170006Ev, symObjAddr: 0x45D0, symBinAddr: 0x1000058E0, symSize: 0x14 }
  - { offsetInCU: 0xD922, offset: 0xD922, size: 0x8, addend: 0x0, symName: __ZNSt3__16vectorI4CardNS_9allocatorIS1_EEED2B8ue170006Ev, symObjAddr: 0x45E4, symBinAddr: 0x1000058F4, symSize: 0x44 }
  - { offsetInCU: 0xD94C, offset: 0xD94C, size: 0x8, addend: 0x0, symName: __ZNSt3__16vectorI4CardNS_9allocatorIS1_EEE16__destroy_vectorC1B8ue170006ERS4_, symObjAddr: 0x4628, symBinAddr: 0x100005938, symSize: 0x34 }
  - { offsetInCU: 0xD985, offset: 0xD985, size: 0x8, addend: 0x0, symName: __ZNSt3__16vectorI4CardNS_9allocatorIS1_EEE16__destroy_vectorclB8ue170006Ev, symObjAddr: 0x465C, symBinAddr: 0x10000596C, symSize: 0x90 }
  - { offsetInCU: 0xD9AB, offset: 0xD9AB, size: 0x8, addend: 0x0, symName: __ZNSt3__16vectorI4CardNS_9allocatorIS1_EEE16__destroy_vectorC2B8ue170006ERS4_, symObjAddr: 0x46EC, symBinAddr: 0x1000059FC, symSize: 0x20 }
  - { offsetInCU: 0xD9E4, offset: 0xD9E4, size: 0x8, addend: 0x0, symName: __ZNSt3__16vectorI4CardNS_9allocatorIS1_EEE7__clearB8ue170006Ev, symObjAddr: 0x470C, symBinAddr: 0x100005A1C, symSize: 0x28 }
  - { offsetInCU: 0xDA0A, offset: 0xDA0A, size: 0x8, addend: 0x0, symName: __ZNKSt3__16vectorI4CardNS_9allocatorIS1_EEE17__annotate_deleteB8ue170006Ev, symObjAddr: 0x4734, symBinAddr: 0x100005A44, symSize: 0xD4 }
  - { offsetInCU: 0xDA30, offset: 0xDA30, size: 0x8, addend: 0x0, symName: __ZNSt3__116allocator_traitsINS_9allocatorI4CardEEE10deallocateB8ue170006ERS3_PS2_m, symObjAddr: 0x4808, symBinAddr: 0x100005B18, symSize: 0x34 }
  - { offsetInCU: 0xDA72, offset: 0xDA72, size: 0x8, addend: 0x0, symName: __ZNSt3__16vectorI4CardNS_9allocatorIS1_EEE7__allocB8ue170006Ev, symObjAddr: 0x483C, symBinAddr: 0x100005B4C, symSize: 0x28 }
  - { offsetInCU: 0xDA98, offset: 0xDA98, size: 0x8, addend: 0x0, symName: __ZNKSt3__16vectorI4CardNS_9allocatorIS1_EEE8capacityB8ue170006Ev, symObjAddr: 0x4864, symBinAddr: 0x100005B74, symSize: 0x40 }
  - { offsetInCU: 0xDABE, offset: 0xDABE, size: 0x8, addend: 0x0, symName: __ZNSt3__16vectorI4CardNS_9allocatorIS1_EEE22__base_destruct_at_endB8ue170006EPS1_, symObjAddr: 0x48A4, symBinAddr: 0x100005BB4, symSize: 0x8C }
  - { offsetInCU: 0xDB02, offset: 0xDB02, size: 0x8, addend: 0x0, symName: __ZNSt3__116allocator_traitsINS_9allocatorI4CardEEE7destroyB8ue170006IS2_vEEvRS3_PT_, symObjAddr: 0x4930, symBinAddr: 0x100005C40, symSize: 0x2C }
  - { offsetInCU: 0xDB3F, offset: 0xDB3F, size: 0x8, addend: 0x0, symName: __ZNSt3__19allocatorI4CardE7destroyB8ue170006EPS1_, symObjAddr: 0x4970, symBinAddr: 0x100005C80, symSize: 0x14 }
  - { offsetInCU: 0xDB73, offset: 0xDB73, size: 0x8, addend: 0x0, symName: __ZNKSt3__16vectorI4CardNS_9allocatorIS1_EEE31__annotate_contiguous_containerB8ue170006EPKvS6_S6_S6_, symObjAddr: 0x4984, symBinAddr: 0x100005C94, symSize: 0x20 }
  - { offsetInCU: 0xDBC9, offset: 0xDBC9, size: 0x8, addend: 0x0, symName: __ZNKSt3__16vectorI4CardNS_9allocatorIS1_EEE4dataB8ue170006Ev, symObjAddr: 0x49A4, symBinAddr: 0x100005CB4, symSize: 0x28 }
  - { offsetInCU: 0xDBEF, offset: 0xDBEF, size: 0x8, addend: 0x0, symName: __ZNSt3__19allocatorI4CardE10deallocateB8ue170006EPS1_m, symObjAddr: 0x49CC, symBinAddr: 0x100005CDC, symSize: 0x44 }
  - { offsetInCU: 0xDC31, offset: 0xDC31, size: 0x8, addend: 0x0, symName: __ZNSt3__117__compressed_pairIP4CardNS_9allocatorIS1_EEE6secondB8ue170006Ev, symObjAddr: 0x4B38, symBinAddr: 0x100005E48, symSize: 0x24 }
  - { offsetInCU: 0xDC57, offset: 0xDC57, size: 0x8, addend: 0x0, symName: __ZNSt3__122__compressed_pair_elemINS_9allocatorI4CardEELi1ELb1EE5__getB8ue170006Ev, symObjAddr: 0x4B5C, symBinAddr: 0x100005E6C, symSize: 0x14 }
  - { offsetInCU: 0xDC7D, offset: 0xDC7D, size: 0x8, addend: 0x0, symName: __ZNKSt3__16vectorI4CardNS_9allocatorIS1_EEE9__end_capB8ue170006Ev, symObjAddr: 0x4B70, symBinAddr: 0x100005E80, symSize: 0x28 }
  - { offsetInCU: 0xDCA3, offset: 0xDCA3, size: 0x8, addend: 0x0, symName: __ZNKSt3__117__compressed_pairIP4CardNS_9allocatorIS1_EEE5firstB8ue170006Ev, symObjAddr: 0x4B98, symBinAddr: 0x100005EA8, symSize: 0x24 }
  - { offsetInCU: 0xDCC9, offset: 0xDCC9, size: 0x8, addend: 0x0, symName: __ZNKSt3__122__compressed_pair_elemIP4CardLi0ELb0EE5__getB8ue170006Ev, symObjAddr: 0x4BBC, symBinAddr: 0x100005ECC, symSize: 0x14 }
  - { offsetInCU: 0xDCEF, offset: 0xDCEF, size: 0x8, addend: 0x0, symName: __ZNSt3__16vectorI5NobleNS_9allocatorIS1_EEEC2B8ue170006Ev, symObjAddr: 0x4BD0, symBinAddr: 0x100005EE0, symSize: 0x4C }
  - { offsetInCU: 0xDD19, offset: 0xDD19, size: 0x8, addend: 0x0, symName: __ZNSt3__117__compressed_pairIP5NobleNS_9allocatorIS1_EEEC1B8ue170006IDnNS_18__default_init_tagEEEOT_OT0_, symObjAddr: 0x4C1C, symBinAddr: 0x100005F2C, symSize: 0x3C }
  - { offsetInCU: 0xDD71, offset: 0xDD71, size: 0x8, addend: 0x0, symName: __ZNSt3__117__compressed_pairIP5NobleNS_9allocatorIS1_EEEC2B8ue170006IDnNS_18__default_init_tagEEEOT_OT0_, symObjAddr: 0x4C58, symBinAddr: 0x100005F68, symSize: 0x40 }
  - { offsetInCU: 0xDDC9, offset: 0xDDC9, size: 0x8, addend: 0x0, symName: __ZNSt3__122__compressed_pair_elemIP5NobleLi0ELb0EEC2B8ue170006IDnvEEOT_, symObjAddr: 0x4C98, symBinAddr: 0x100005FA8, symSize: 0x1C }
  - { offsetInCU: 0xDE0B, offset: 0xDE0B, size: 0x8, addend: 0x0, symName: __ZNSt3__122__compressed_pair_elemINS_9allocatorI5NobleEELi1ELb1EEC2B8ue170006ENS_18__default_init_tagE, symObjAddr: 0x4CB4, symBinAddr: 0x100005FC4, symSize: 0x2C }
  - { offsetInCU: 0xDE40, offset: 0xDE40, size: 0x8, addend: 0x0, symName: __ZNSt3__19allocatorI5NobleEC2B8ue170006Ev, symObjAddr: 0x4CE0, symBinAddr: 0x100005FF0, symSize: 0x2C }
  - { offsetInCU: 0xDE6A, offset: 0xDE6A, size: 0x8, addend: 0x0, symName: __ZNSt3__116__non_trivial_ifILb1ENS_9allocatorI5NobleEEEC2B8ue170006Ev, symObjAddr: 0x4D0C, symBinAddr: 0x10000601C, symSize: 0x14 }
  - { offsetInCU: 0xDE94, offset: 0xDE94, size: 0x8, addend: 0x0, symName: __ZNSt3__16vectorI5NobleNS_9allocatorIS1_EEED2B8ue170006Ev, symObjAddr: 0x4D20, symBinAddr: 0x100006030, symSize: 0x44 }
  - { offsetInCU: 0xDEBE, offset: 0xDEBE, size: 0x8, addend: 0x0, symName: __ZNSt3__16vectorI5NobleNS_9allocatorIS1_EEE16__destroy_vectorC1B8ue170006ERS4_, symObjAddr: 0x4D64, symBinAddr: 0x100006074, symSize: 0x34 }
  - { offsetInCU: 0xDEF7, offset: 0xDEF7, size: 0x8, addend: 0x0, symName: __ZNSt3__16vectorI5NobleNS_9allocatorIS1_EEE16__destroy_vectorclB8ue170006Ev, symObjAddr: 0x4D98, symBinAddr: 0x1000060A8, symSize: 0x90 }
  - { offsetInCU: 0xDF1D, offset: 0xDF1D, size: 0x8, addend: 0x0, symName: __ZNSt3__16vectorI5NobleNS_9allocatorIS1_EEE16__destroy_vectorC2B8ue170006ERS4_, symObjAddr: 0x4E28, symBinAddr: 0x100006138, symSize: 0x20 }
  - { offsetInCU: 0xDF56, offset: 0xDF56, size: 0x8, addend: 0x0, symName: __ZNSt3__16vectorI5NobleNS_9allocatorIS1_EEE7__clearB8ue170006Ev, symObjAddr: 0x4E48, symBinAddr: 0x100006158, symSize: 0x28 }
  - { offsetInCU: 0xDF7C, offset: 0xDF7C, size: 0x8, addend: 0x0, symName: __ZNKSt3__16vectorI5NobleNS_9allocatorIS1_EEE17__annotate_deleteB8ue170006Ev, symObjAddr: 0x4E70, symBinAddr: 0x100006180, symSize: 0xB8 }
  - { offsetInCU: 0xDFA2, offset: 0xDFA2, size: 0x8, addend: 0x0, symName: __ZNSt3__116allocator_traitsINS_9allocatorI5NobleEEE10deallocateB8ue170006ERS3_PS2_m, symObjAddr: 0x4F28, symBinAddr: 0x100006238, symSize: 0x34 }
  - { offsetInCU: 0xDFE4, offset: 0xDFE4, size: 0x8, addend: 0x0, symName: __ZNSt3__16vectorI5NobleNS_9allocatorIS1_EEE7__allocB8ue170006Ev, symObjAddr: 0x4F5C, symBinAddr: 0x10000626C, symSize: 0x28 }
  - { offsetInCU: 0xE00A, offset: 0xE00A, size: 0x8, addend: 0x0, symName: __ZNKSt3__16vectorI5NobleNS_9allocatorIS1_EEE8capacityB8ue170006Ev, symObjAddr: 0x4F84, symBinAddr: 0x100006294, symSize: 0x40 }
  - { offsetInCU: 0xE030, offset: 0xE030, size: 0x8, addend: 0x0, symName: __ZNSt3__16vectorI5NobleNS_9allocatorIS1_EEE22__base_destruct_at_endB8ue170006EPS1_, symObjAddr: 0x4FC4, symBinAddr: 0x1000062D4, symSize: 0x8C }
  - { offsetInCU: 0xE074, offset: 0xE074, size: 0x8, addend: 0x0, symName: __ZNSt3__116allocator_traitsINS_9allocatorI5NobleEEE7destroyB8ue170006IS2_vEEvRS3_PT_, symObjAddr: 0x5050, symBinAddr: 0x100006360, symSize: 0x2C }
  - { offsetInCU: 0xE0B1, offset: 0xE0B1, size: 0x8, addend: 0x0, symName: __ZNSt3__19allocatorI5NobleE7destroyB8ue170006EPS1_, symObjAddr: 0x5090, symBinAddr: 0x1000063A0, symSize: 0x14 }
  - { offsetInCU: 0xE0E5, offset: 0xE0E5, size: 0x8, addend: 0x0, symName: __ZNKSt3__16vectorI5NobleNS_9allocatorIS1_EEE31__annotate_contiguous_containerB8ue170006EPKvS6_S6_S6_, symObjAddr: 0x50A4, symBinAddr: 0x1000063B4, symSize: 0x20 }
  - { offsetInCU: 0xE13B, offset: 0xE13B, size: 0x8, addend: 0x0, symName: __ZNKSt3__16vectorI5NobleNS_9allocatorIS1_EEE4dataB8ue170006Ev, symObjAddr: 0x50C4, symBinAddr: 0x1000063D4, symSize: 0x28 }
  - { offsetInCU: 0xE161, offset: 0xE161, size: 0x8, addend: 0x0, symName: __ZNKSt3__16vectorI5NobleNS_9allocatorIS1_EEE4sizeB8ue170006Ev, symObjAddr: 0x50EC, symBinAddr: 0x1000063FC, symSize: 0x28 }
  - { offsetInCU: 0xE187, offset: 0xE187, size: 0x8, addend: 0x0, symName: __ZNSt3__19allocatorI5NobleE10deallocateB8ue170006EPS1_m, symObjAddr: 0x5114, symBinAddr: 0x100006424, symSize: 0x40 }
  - { offsetInCU: 0xE1C9, offset: 0xE1C9, size: 0x8, addend: 0x0, symName: __ZNSt3__117__compressed_pairIP5NobleNS_9allocatorIS1_EEE6secondB8ue170006Ev, symObjAddr: 0x5154, symBinAddr: 0x100006464, symSize: 0x24 }
  - { offsetInCU: 0xE1EF, offset: 0xE1EF, size: 0x8, addend: 0x0, symName: __ZNSt3__122__compressed_pair_elemINS_9allocatorI5NobleEELi1ELb1EE5__getB8ue170006Ev, symObjAddr: 0x5178, symBinAddr: 0x100006488, symSize: 0x14 }
  - { offsetInCU: 0xE215, offset: 0xE215, size: 0x8, addend: 0x0, symName: __ZNKSt3__16vectorI5NobleNS_9allocatorIS1_EEE9__end_capB8ue170006Ev, symObjAddr: 0x518C, symBinAddr: 0x10000649C, symSize: 0x28 }
  - { offsetInCU: 0xE23B, offset: 0xE23B, size: 0x8, addend: 0x0, symName: __ZNKSt3__117__compressed_pairIP5NobleNS_9allocatorIS1_EEE5firstB8ue170006Ev, symObjAddr: 0x51B4, symBinAddr: 0x1000064C4, symSize: 0x24 }
  - { offsetInCU: 0xE261, offset: 0xE261, size: 0x8, addend: 0x0, symName: __ZNKSt3__122__compressed_pair_elemIP5NobleLi0ELb0EE5__getB8ue170006Ev, symObjAddr: 0x51D8, symBinAddr: 0x1000064E8, symSize: 0x14 }
  - { offsetInCU: 0xE287, offset: 0xE287, size: 0x8, addend: 0x0, symName: __ZNSt3__16vectorI4CardNS_9allocatorIS1_EEE13__move_assignERS4_NS_17integral_constantIbLb1EEE, symObjAddr: 0x51EC, symBinAddr: 0x1000064FC, symSize: 0x94 }
  - { offsetInCU: 0xE2CA, offset: 0xE2CA, size: 0x8, addend: 0x0, symName: __ZNSt3__16vectorI4CardNS_9allocatorIS1_EEE13__vdeallocateEv, symObjAddr: 0x5280, symBinAddr: 0x100006590, symSize: 0x94 }
  - { offsetInCU: 0xE2F2, offset: 0xE2F2, size: 0x8, addend: 0x0, symName: __ZNSt3__16vectorI4CardNS_9allocatorIS1_EEE19__move_assign_allocB8ue170006ERS4_, symObjAddr: 0x5314, symBinAddr: 0x100006624, symSize: 0x2C }
  - { offsetInCU: 0xE327, offset: 0xE327, size: 0x8, addend: 0x0, symName: __ZNSt3__16vectorI4CardNS_9allocatorIS1_EEE9__end_capB8ue170006Ev, symObjAddr: 0x5340, symBinAddr: 0x100006650, symSize: 0x28 }
  - { offsetInCU: 0xE34D, offset: 0xE34D, size: 0x8, addend: 0x0, symName: __ZNSt3__16vectorI4CardNS_9allocatorIS1_EEE5clearB8ue170006Ev, symObjAddr: 0x5368, symBinAddr: 0x100006678, symSize: 0x44 }
  - { offsetInCU: 0xE382, offset: 0xE382, size: 0x8, addend: 0x0, symName: __ZNKSt3__16vectorI4CardNS_9allocatorIS1_EEE17__annotate_shrinkB8ue170006Em, symObjAddr: 0x53AC, symBinAddr: 0x1000066BC, symSize: 0xD0 }
  - { offsetInCU: 0xE3B7, offset: 0xE3B7, size: 0x8, addend: 0x0, symName: __ZNSt3__16vectorI4CardNS_9allocatorIS1_EEE19__move_assign_allocB8ue170006ERS4_NS_17integral_constantIbLb1EEE, symObjAddr: 0x547C, symBinAddr: 0x10000678C, symSize: 0x38 }
  - { offsetInCU: 0xE3F8, offset: 0xE3F8, size: 0x8, addend: 0x0, symName: __ZNSt3__117__compressed_pairIP4CardNS_9allocatorIS1_EEE5firstB8ue170006Ev, symObjAddr: 0x54B4, symBinAddr: 0x1000067C4, symSize: 0x24 }
  - { offsetInCU: 0xE41E, offset: 0xE41E, size: 0x8, addend: 0x0, symName: __ZNSt3__122__compressed_pair_elemIP4CardLi0ELb0EE5__getB8ue170006Ev, symObjAddr: 0x54D8, symBinAddr: 0x1000067E8, symSize: 0x14 }
  - { offsetInCU: 0xE444, offset: 0xE444, size: 0x8, addend: 0x0, symName: __ZNSt3__16vectorI5NobleNS_9allocatorIS1_EEE13__move_assignERS4_NS_17integral_constantIbLb1EEE, symObjAddr: 0x54EC, symBinAddr: 0x1000067FC, symSize: 0x94 }
  - { offsetInCU: 0xE487, offset: 0xE487, size: 0x8, addend: 0x0, symName: __ZNSt3__16vectorI5NobleNS_9allocatorIS1_EEE13__vdeallocateEv, symObjAddr: 0x5580, symBinAddr: 0x100006890, symSize: 0x94 }
  - { offsetInCU: 0xE4AF, offset: 0xE4AF, size: 0x8, addend: 0x0, symName: __ZNSt3__16vectorI5NobleNS_9allocatorIS1_EEE19__move_assign_allocB8ue170006ERS4_, symObjAddr: 0x5614, symBinAddr: 0x100006924, symSize: 0x2C }
  - { offsetInCU: 0xE4E4, offset: 0xE4E4, size: 0x8, addend: 0x0, symName: __ZNSt3__16vectorI5NobleNS_9allocatorIS1_EEE9__end_capB8ue170006Ev, symObjAddr: 0x5640, symBinAddr: 0x100006950, symSize: 0x28 }
  - { offsetInCU: 0xE50A, offset: 0xE50A, size: 0x8, addend: 0x0, symName: __ZNSt3__16vectorI5NobleNS_9allocatorIS1_EEE5clearB8ue170006Ev, symObjAddr: 0x5668, symBinAddr: 0x100006978, symSize: 0x44 }
  - { offsetInCU: 0xE53F, offset: 0xE53F, size: 0x8, addend: 0x0, symName: __ZNKSt3__16vectorI5NobleNS_9allocatorIS1_EEE17__annotate_shrinkB8ue170006Em, symObjAddr: 0x56AC, symBinAddr: 0x1000069BC, symSize: 0xB4 }
  - { offsetInCU: 0xE574, offset: 0xE574, size: 0x8, addend: 0x0, symName: __ZNSt3__16vectorI5NobleNS_9allocatorIS1_EEE19__move_assign_allocB8ue170006ERS4_NS_17integral_constantIbLb1EEE, symObjAddr: 0x5760, symBinAddr: 0x100006A70, symSize: 0x38 }
  - { offsetInCU: 0xE5B5, offset: 0xE5B5, size: 0x8, addend: 0x0, symName: __ZNSt3__117__compressed_pairIP5NobleNS_9allocatorIS1_EEE5firstB8ue170006Ev, symObjAddr: 0x5798, symBinAddr: 0x100006AA8, symSize: 0x24 }
  - { offsetInCU: 0xE5DB, offset: 0xE5DB, size: 0x8, addend: 0x0, symName: __ZNSt3__122__compressed_pair_elemIP5NobleLi0ELb0EE5__getB8ue170006Ev, symObjAddr: 0x57BC, symBinAddr: 0x100006ACC, symSize: 0x14 }
  - { offsetInCU: 0xE601, offset: 0xE601, size: 0x8, addend: 0x0, symName: __ZNSt3__112basic_stringIcNS_11char_traitsIcEENS_9allocatorIcEEEC2B8ue170006Ev, symObjAddr: 0x57D0, symBinAddr: 0x100006AE0, symSize: 0x44 }
  - { offsetInCU: 0xE6B3, offset: 0xE6B3, size: 0x8, addend: 0x0, symName: __ZNKSt3__113basic_istreamIcNS_11char_traitsIcEEE6sentrycvbB8ue170006Ev, symObjAddr: 0x5A4C, symBinAddr: 0x100006D5C, symSize: 0x1C }
  - { offsetInCU: 0xE6D9, offset: 0xE6D9, size: 0x8, addend: 0x0, symName: __ZNSt3__112basic_stringIcNS_11char_traitsIcEENS_9allocatorIcEEE5clearB8ue170006Ev, symObjAddr: 0x5A68, symBinAddr: 0x100006D78, symSize: 0x78 }
  - { offsetInCU: 0xE701, offset: 0xE701, size: 0x8, addend: 0x0, symName: __ZNSt3__115basic_streambufIcNS_11char_traitsIcEEE6sbumpcB8ue170006Ev, symObjAddr: 0x5AE0, symBinAddr: 0x100006DF0, symSize: 0x78 }
  - { offsetInCU: 0xE727, offset: 0xE727, size: 0x8, addend: 0x0, symName: __ZNSt3__111char_traitsIcE12to_char_typeB8ue170006Ei, symObjAddr: 0x5B58, symBinAddr: 0x100006E68, symSize: 0x18 }
  - { offsetInCU: 0xE74A, offset: 0xE74A, size: 0x8, addend: 0x0, symName: __ZNKSt3__112basic_stringIcNS_11char_traitsIcEENS_9allocatorIcEEE8max_sizeB8ue170006Ev, symObjAddr: 0x5B70, symBinAddr: 0x100006E80, symSize: 0xAC }
  - { offsetInCU: 0xE79C, offset: 0xE79C, size: 0x8, addend: 0x0, symName: __ZNSt3__18ios_base18__setstate_nothrowB8ue170006Ej, symObjAddr: 0x5C1C, symBinAddr: 0x100006F2C, symSize: 0x64 }
  - { offsetInCU: 0xE7D1, offset: 0xE7D1, size: 0x8, addend: 0x0, symName: __ZNKSt3__19basic_iosIcNS_11char_traitsIcEEE10exceptionsB8ue170006Ev, symObjAddr: 0x5C80, symBinAddr: 0x100006F90, symSize: 0x24 }
  - { offsetInCU: 0xE7F7, offset: 0xE7F7, size: 0x8, addend: 0x0, symName: __ZNSt3__111char_traitsIcE6assignB8ue170006ERcRKc, symObjAddr: 0x5CA4, symBinAddr: 0x100006FB4, symSize: 0x24 }
  - { offsetInCU: 0xE828, offset: 0xE828, size: 0x8, addend: 0x0, symName: __ZNSt3__112basic_stringIcNS_11char_traitsIcEENS_9allocatorIcEEE15__set_long_sizeB8ue170006Em, symObjAddr: 0x5CC8, symBinAddr: 0x100006FD8, symSize: 0x38 }
  - { offsetInCU: 0xE85D, offset: 0xE85D, size: 0x8, addend: 0x0, symName: __ZNSt3__112basic_stringIcNS_11char_traitsIcEENS_9allocatorIcEEE16__set_short_sizeB8ue170006Em, symObjAddr: 0x5D00, symBinAddr: 0x100007010, symSize: 0x78 }
  - { offsetInCU: 0xE892, offset: 0xE892, size: 0x8, addend: 0x0, symName: __ZNSt3__111char_traitsIcE11to_int_typeB8ue170006Ec, symObjAddr: 0x5D78, symBinAddr: 0x100007088, symSize: 0x14 }
  - { offsetInCU: 0xE8C0, offset: 0xE8C0, size: 0x8, addend: 0x0, symName: __ZNSt3__116allocator_traitsINS_9allocatorIcEEE8max_sizeB8ue170006IS2_vEEmRKS2_, symObjAddr: 0x5D8C, symBinAddr: 0x10000709C, symSize: 0x24 }
  - { offsetInCU: 0xE8EE, offset: 0xE8EE, size: 0x8, addend: 0x0, symName: __ZNKSt3__112basic_stringIcNS_11char_traitsIcEENS_9allocatorIcEEE7__allocB8ue170006Ev, symObjAddr: 0x5DB0, symBinAddr: 0x1000070C0, symSize: 0x24 }
  - { offsetInCU: 0xE914, offset: 0xE914, size: 0x8, addend: 0x0, symName: __ZNSt3__114numeric_limitsImE3maxB8ue170006Ev, symObjAddr: 0x5DD4, symBinAddr: 0x1000070E4, symSize: 0x14 }
  - { offsetInCU: 0xE928, offset: 0xE928, size: 0x8, addend: 0x0, symName: __ZNKSt3__19allocatorIcE8max_sizeB8ue170006Ev, symObjAddr: 0x5DE8, symBinAddr: 0x1000070F8, symSize: 0x14 }
  - { offsetInCU: 0xE94E, offset: 0xE94E, size: 0x8, addend: 0x0, symName: __ZNKSt3__117__compressed_pairINS_12basic_stringIcNS_11char_traitsIcEENS_9allocatorIcEEE5__repES5_E6secondB8ue170006Ev, symObjAddr: 0x5DFC, symBinAddr: 0x10000710C, symSize: 0x24 }
  - { offsetInCU: 0xE974, offset: 0xE974, size: 0x8, addend: 0x0, symName: __ZNKSt3__122__compressed_pair_elemINS_9allocatorIcEELi1ELb1EE5__getB8ue170006Ev, symObjAddr: 0x5E20, symBinAddr: 0x100007130, symSize: 0x14 }
  - { offsetInCU: 0xE99A, offset: 0xE99A, size: 0x8, addend: 0x0, symName: __ZNSt3__123__libcpp_numeric_limitsImLb1EE3maxB8ue170006Ev, symObjAddr: 0x5E34, symBinAddr: 0x100007144, symSize: 0x8 }
  - { offsetInCU: 0xE9AE, offset: 0xE9AE, size: 0x8, addend: 0x0, symName: __ZNKSt3__18ios_base10exceptionsB8ue170006Ev, symObjAddr: 0x5E3C, symBinAddr: 0x10000714C, symSize: 0x18 }
  - { offsetInCU: 0xE9D6, offset: 0xE9D6, size: 0x8, addend: 0x0, symName: __ZNKSt3__19basic_iosIcNS_11char_traitsIcEEE4failB8ue170006Ev, symObjAddr: 0x5E54, symBinAddr: 0x100007164, symSize: 0x28 }
  - { offsetInCU: 0xE9FC, offset: 0xE9FC, size: 0x8, addend: 0x0, symName: __ZNKSt3__18ios_base4failB8ue170006Ev, symObjAddr: 0x5E7C, symBinAddr: 0x10000718C, symSize: 0x28 }
  - { offsetInCU: 0xDAC5, offset: 0x1C68E, size: 0x8, addend: 0x0, symName: __ZNSt3__19__shuffleB8ue170006INS_17_ClassicAlgPolicyENS_11__wrap_iterIP4CardEES5_RNS_23mersenne_twister_engineIjLm32ELm624ELm397ELm31ELj2567483615ELm11ELj4294967295ELm7ELj2636928640ELm15ELj4022730752ELm18ELj1812433253EEEEET0_S9_T1_OT2_, symObjAddr: 0xAE18, symBinAddr: 0x10000EBE0, symSize: 0x13C }
  - { offsetInCU: 0xE242, offset: 0x1CE0B, size: 0x8, addend: 0x0, symName: __ZNSt3__19__shuffleB8ue170006INS_17_ClassicAlgPolicyENS_11__wrap_iterIP5NobleEES5_RNS_23mersenne_twister_engineIjLm32ELm624ELm397ELm31ELj2567483615ELm11ELj4294967295ELm7ELj2636928640ELm15ELj4022730752ELm18ELj1812433253EEEEET0_S9_T1_OT2_, symObjAddr: 0xC604, symBinAddr: 0x1000103B0, symSize: 0x13C }
  - { offsetInCU: 0x11D9C, offset: 0x20965, size: 0x8, addend: 0x0, symName: __ZNSt3__1neB8ue170006IPK4CardEEbRKNS_11__wrap_iterIT_EES8_, symObjAddr: 0x23A8, symBinAddr: 0x100008D34, symSize: 0x34 }
  - { offsetInCU: 0x11DDF, offset: 0x209A8, size: 0x8, addend: 0x0, symName: __ZNSt3__17shuffleB8ue170006INS_11__wrap_iterIP4CardEERNS_23mersenne_twister_engineIjLm32ELm624ELm397ELm31ELj2567483615ELm11ELj4294967295ELm7ELj2636928640ELm15ELj4022730752ELm18ELj1812433253EEEEEvT_S8_OT0_, symObjAddr: 0x2414, symBinAddr: 0x100008DA0, symSize: 0x48 }
  - { offsetInCU: 0x11E36, offset: 0x209FF, size: 0x8, addend: 0x0, symName: __ZNSt3__17shuffleB8ue170006INS_11__wrap_iterIP5NobleEERNS_23mersenne_twister_engineIjLm32ELm624ELm397ELm31ELj2567483615ELm11ELj4294967295ELm7ELj2636928640ELm15ELj4022730752ELm18ELj1812433253EEEEEvT_S8_OT0_, symObjAddr: 0x256C, symBinAddr: 0x100008ED0, symSize: 0x48 }
  - { offsetInCU: 0x11E8D, offset: 0x20A56, size: 0x8, addend: 0x0, symName: __ZNSt3__13minB8ue170006IiEERKT_S3_S3_, symObjAddr: 0x2E48, symBinAddr: 0x100009758, symSize: 0x2C }
  - { offsetInCU: 0x11EEF, offset: 0x20AB8, size: 0x8, addend: 0x0, symName: __ZNSt3__1neB8ue170006IP4MoveEEbRKNS_11__wrap_iterIT_EES7_, symObjAddr: 0x52FC, symBinAddr: 0x10000BBB8, symSize: 0x34 }
  - { offsetInCU: 0x12205, offset: 0x20DCE, size: 0x8, addend: 0x0, symName: __ZNSt3__1eqB8ue170006IPK4CardEEbRKNS_11__wrap_iterIT_EES8_, symObjAddr: 0x7568, symBinAddr: 0x10000BD54, symSize: 0x48 }
  - { offsetInCU: 0x12248, offset: 0x20E11, size: 0x8, addend: 0x0, symName: __ZNSt3__13maxB8ue170006IiEERKT_S3_S3_, symObjAddr: 0x75C8, symBinAddr: 0x10000BDB4, symSize: 0x2C }
  - { offsetInCU: 0x1228B, offset: 0x20E54, size: 0x8, addend: 0x0, symName: __ZNSt3__13maxB8ue170006IiNS_6__lessIvvEEEERKT_S5_S5_T0_, symObjAddr: 0x75F4, symBinAddr: 0x10000BDE0, symSize: 0x54 }
  - { offsetInCU: 0x1235D, offset: 0x20F26, size: 0x8, addend: 0x0, symName: __ZNSt3__13minB8ue170006IiNS_6__lessIvvEEEERKT_S5_S5_T0_, symObjAddr: 0x76A8, symBinAddr: 0x10000BE68, symSize: 0x54 }
  - { offsetInCU: 0x123B7, offset: 0x20F80, size: 0x8, addend: 0x0, symName: __ZNSt3__1eqB8ue170006IP4MoveEEbRKNS_11__wrap_iterIT_EES7_, symObjAddr: 0x77E8, symBinAddr: 0x10000BFA8, symSize: 0x48 }
  - { offsetInCU: 0x123FA, offset: 0x20FC3, size: 0x8, addend: 0x0, symName: __ZNSt3__13maxB8ue170006ImEERKT_S3_S3_, symObjAddr: 0x860C, symBinAddr: 0x10000C64C, symSize: 0x2C }
  - { offsetInCU: 0x1243D, offset: 0x21006, size: 0x8, addend: 0x0, symName: __ZNSt3__13minB8ue170006ImEERKT_S3_S3_, symObjAddr: 0x8638, symBinAddr: 0x10000C678, symSize: 0x2C }
  - { offsetInCU: 0x1266A, offset: 0x21233, size: 0x8, addend: 0x0, symName: __ZNSt3__13minB8ue170006ImNS_6__lessIvvEEEERKT_S5_S5_T0_, symObjAddr: 0x86C4, symBinAddr: 0x10000C704, symSize: 0x54 }
  - { offsetInCU: 0x126C4, offset: 0x2128D, size: 0x8, addend: 0x0, symName: __ZNSt3__120__throw_length_errorB8ue170006EPKc, symObjAddr: 0x87A4, symBinAddr: 0x10000C7E4, symSize: 0x64 }
  - { offsetInCU: 0x126EF, offset: 0x212B8, size: 0x8, addend: 0x0, symName: __ZNSt3__13maxB8ue170006ImNS_6__lessIvvEEEERKT_S5_S5_T0_, symObjAddr: 0x8888, symBinAddr: 0x10000C8C8, symSize: 0x54 }
  - { offsetInCU: 0x12749, offset: 0x21312, size: 0x8, addend: 0x0, symName: __ZNSt3__119__allocate_at_leastB8ue170006INS_9allocatorI4CardEEEENS_19__allocation_resultINS_16allocator_traitsIT_E7pointerEEERS6_m, symObjAddr: 0x89F8, symBinAddr: 0x10000CA38, symSize: 0x40 }
  - { offsetInCU: 0x1278C, offset: 0x21355, size: 0x8, addend: 0x0, symName: __ZNSt3__117__libcpp_allocateB8ue170006Emm, symObjAddr: 0x8B80, symBinAddr: 0x10000CBC0, symSize: 0x60 }
  - { offsetInCU: 0x127E6, offset: 0x213AF, size: 0x8, addend: 0x0, symName: __ZNSt3__121__libcpp_operator_newB8ue170006IJmSt11align_val_tEEEPvDpT_, symObjAddr: 0x8BE0, symBinAddr: 0x10000CC20, symSize: 0x2C }
  - { offsetInCU: 0x12833, offset: 0x213FC, size: 0x8, addend: 0x0, symName: __ZNSt3__121__libcpp_operator_newB8ue170006IJmEEEPvDpT_, symObjAddr: 0x8C0C, symBinAddr: 0x10000CC4C, symSize: 0x24 }
  - { offsetInCU: 0x1286C, offset: 0x21435, size: 0x8, addend: 0x0, symName: __ZNSt3__142__uninitialized_allocator_move_if_noexceptB8ue170006INS_9allocatorI4CardEENS_16reverse_iteratorIPS2_EES6_S2_vEET1_RT_T0_SA_S7_, symObjAddr: 0x8C94, symBinAddr: 0x10000CCD4, symSize: 0x78 }
  - { offsetInCU: 0x128EA, offset: 0x214B3, size: 0x8, addend: 0x0, symName: __ZNSt3__14swapB8ue170006IP4CardEENS_9enable_ifIXaasr21is_move_constructibleIT_EE5valuesr18is_move_assignableIS4_EE5valueEvE4typeERS4_S7_, symObjAddr: 0x8D58, symBinAddr: 0x10000CD98, symSize: 0x3C }
  - { offsetInCU: 0x1293B, offset: 0x21504, size: 0x8, addend: 0x0, symName: __ZNSt3__14moveB8ue170006INS_16reverse_iteratorIP4CardEES4_EET0_T_S6_S5_, symObjAddr: 0x8E5C, symBinAddr: 0x10000CE9C, symSize: 0x78 }
  - { offsetInCU: 0x12995, offset: 0x2155E, size: 0x8, addend: 0x0, symName: __ZNSt3__16__moveB8ue170006INS_17_ClassicAlgPolicyENS_16reverse_iteratorIP4CardEES5_S5_EENS_4pairIT0_T2_EES7_T1_S8_, symObjAddr: 0x8ED4, symBinAddr: 0x10000CF14, symSize: 0x64 }
  - { offsetInCU: 0x12A01, offset: 0x215CA, size: 0x8, addend: 0x0, symName: __ZNSt3__123__dispatch_copy_or_moveB8ue170006INS_17_ClassicAlgPolicyENS_11__move_loopIS1_EENS_14__move_trivialENS_16reverse_iteratorIP4CardEES8_S8_EENS_4pairIT2_T4_EESA_T3_SB_, symObjAddr: 0x8F38, symBinAddr: 0x10000CF78, symSize: 0x64 }
  - { offsetInCU: 0x12A7F, offset: 0x21648, size: 0x8, addend: 0x0, symName: __ZNSt3__121__unwrap_and_dispatchB8ue170006INS_10__overloadINS_11__move_loopINS_17_ClassicAlgPolicyEEENS_14__move_trivialEEENS_16reverse_iteratorIP4CardEESA_SA_Li0EEENS_4pairIT0_T2_EESC_T1_SD_, symObjAddr: 0x8F9C, symBinAddr: 0x10000CFDC, symSize: 0x12C }
  - { offsetInCU: 0x12B0F, offset: 0x216D8, size: 0x8, addend: 0x0, symName: __ZNSt3__114__unwrap_rangeB8ue170006INS_16reverse_iteratorIP4CardEES4_EENS_4pairIT0_S6_EET_S8_, symObjAddr: 0x90C8, symBinAddr: 0x10000D108, symSize: 0x84 }
  - { offsetInCU: 0x12D09, offset: 0x218D2, size: 0x8, addend: 0x0, symName: __ZNSt3__113__unwrap_iterB8ue170006INS_16reverse_iteratorIP4CardEENS_18__unwrap_iter_implIS4_Lb0EEELi0EEEDTclsrT0_8__unwrapclsr3stdE7declvalIT_EEEES8_, symObjAddr: 0x91E8, symBinAddr: 0x10000D228, symSize: 0x44 }
  - { offsetInCU: 0x12D4D, offset: 0x21916, size: 0x8, addend: 0x0, symName: __ZNSt3__19make_pairB8ue170006INS_16reverse_iteratorIP4CardEES4_EENS_4pairINS_18__unwrap_ref_decayIT_E4typeENS6_IT0_E4typeEEEOS7_OSA_, symObjAddr: 0x922C, symBinAddr: 0x10000D26C, symSize: 0x38 }
  - { offsetInCU: 0x12D9C, offset: 0x21965, size: 0x8, addend: 0x0, symName: __ZNSt3__114__rewrap_rangeB8ue170006INS_16reverse_iteratorIP4CardEES4_EET_S5_T0_, symObjAddr: 0x9264, symBinAddr: 0x10000D2A4, symSize: 0x5C }
  - { offsetInCU: 0x12DE8, offset: 0x219B1, size: 0x8, addend: 0x0, symName: __ZNSt3__113__rewrap_iterB8ue170006INS_16reverse_iteratorIP4CardEES4_NS_18__unwrap_iter_implIS4_Lb0EEEEET_S7_T0_, symObjAddr: 0x92C0, symBinAddr: 0x10000D300, symSize: 0x74 }
  - { offsetInCU: 0x12E3D, offset: 0x21A06, size: 0x8, addend: 0x0, symName: __ZNSt3__1neB8ue170006IP4CardS2_EEbRKNS_16reverse_iteratorIT_EERKNS3_IT0_EE, symObjAddr: 0x9334, symBinAddr: 0x10000D374, symSize: 0x48 }
  - { offsetInCU: 0x13038, offset: 0x21C01, size: 0x8, addend: 0x0, symName: __ZNSt3__119__allocate_at_leastB8ue170006INS_9allocatorI5NobleEEEENS_19__allocation_resultINS_16allocator_traitsIT_E7pointerEEERS6_m, symObjAddr: 0xA02C, symBinAddr: 0x10000DDF4, symSize: 0x40 }
  - { offsetInCU: 0x1307B, offset: 0x21C44, size: 0x8, addend: 0x0, symName: __ZNSt3__142__uninitialized_allocator_move_if_noexceptB8ue170006INS_9allocatorI5NobleEENS_16reverse_iteratorIPS2_EES6_S2_vEET1_RT_T0_SA_S7_, symObjAddr: 0xA1E0, symBinAddr: 0x10000DFA8, symSize: 0x78 }
  - { offsetInCU: 0x130F9, offset: 0x21CC2, size: 0x8, addend: 0x0, symName: __ZNSt3__14swapB8ue170006IP5NobleEENS_9enable_ifIXaasr21is_move_constructibleIT_EE5valuesr18is_move_assignableIS4_EE5valueEvE4typeERS4_S7_, symObjAddr: 0xA2A4, symBinAddr: 0x10000E06C, symSize: 0x3C }
  - { offsetInCU: 0x1314A, offset: 0x21D13, size: 0x8, addend: 0x0, symName: __ZNSt3__14moveB8ue170006INS_16reverse_iteratorIP5NobleEES4_EET0_T_S6_S5_, symObjAddr: 0xA38C, symBinAddr: 0x10000E154, symSize: 0x78 }
  - { offsetInCU: 0x131A4, offset: 0x21D6D, size: 0x8, addend: 0x0, symName: __ZNSt3__16__moveB8ue170006INS_17_ClassicAlgPolicyENS_16reverse_iteratorIP5NobleEES5_S5_EENS_4pairIT0_T2_EES7_T1_S8_, symObjAddr: 0xA404, symBinAddr: 0x10000E1CC, symSize: 0x64 }
  - { offsetInCU: 0x13210, offset: 0x21DD9, size: 0x8, addend: 0x0, symName: __ZNSt3__123__dispatch_copy_or_moveB8ue170006INS_17_ClassicAlgPolicyENS_11__move_loopIS1_EENS_14__move_trivialENS_16reverse_iteratorIP5NobleEES8_S8_EENS_4pairIT2_T4_EESA_T3_SB_, symObjAddr: 0xA468, symBinAddr: 0x10000E230, symSize: 0x64 }
  - { offsetInCU: 0x1328E, offset: 0x21E57, size: 0x8, addend: 0x0, symName: __ZNSt3__121__unwrap_and_dispatchB8ue170006INS_10__overloadINS_11__move_loopINS_17_ClassicAlgPolicyEEENS_14__move_trivialEEENS_16reverse_iteratorIP5NobleEESA_SA_Li0EEENS_4pairIT0_T2_EESC_T1_SD_, symObjAddr: 0xA4CC, symBinAddr: 0x10000E294, symSize: 0x12C }
  - { offsetInCU: 0x1331E, offset: 0x21EE7, size: 0x8, addend: 0x0, symName: __ZNSt3__114__unwrap_rangeB8ue170006INS_16reverse_iteratorIP5NobleEES4_EENS_4pairIT0_S6_EET_S8_, symObjAddr: 0xA5F8, symBinAddr: 0x10000E3C0, symSize: 0x84 }
  - { offsetInCU: 0x1343F, offset: 0x22008, size: 0x8, addend: 0x0, symName: __ZNSt3__113__unwrap_iterB8ue170006INS_16reverse_iteratorIP5NobleEENS_18__unwrap_iter_implIS4_Lb0EEELi0EEEDTclsrT0_8__unwrapclsr3stdE7declvalIT_EEEES8_, symObjAddr: 0xA724, symBinAddr: 0x10000E4EC, symSize: 0x44 }
  - { offsetInCU: 0x13483, offset: 0x2204C, size: 0x8, addend: 0x0, symName: __ZNSt3__19make_pairB8ue170006INS_16reverse_iteratorIP5NobleEES4_EENS_4pairINS_18__unwrap_ref_decayIT_E4typeENS6_IT0_E4typeEEEOS7_OSA_, symObjAddr: 0xA768, symBinAddr: 0x10000E530, symSize: 0x38 }
  - { offsetInCU: 0x134D2, offset: 0x2209B, size: 0x8, addend: 0x0, symName: __ZNSt3__114__rewrap_rangeB8ue170006INS_16reverse_iteratorIP5NobleEES4_EET_S5_T0_, symObjAddr: 0xA7A0, symBinAddr: 0x10000E568, symSize: 0x5C }
  - { offsetInCU: 0x1351E, offset: 0x220E7, size: 0x8, addend: 0x0, symName: __ZNSt3__113__rewrap_iterB8ue170006INS_16reverse_iteratorIP5NobleEES4_NS_18__unwrap_iter_implIS4_Lb0EEEEET_S7_T0_, symObjAddr: 0xA7FC, symBinAddr: 0x10000E5C4, symSize: 0x74 }
  - { offsetInCU: 0x13573, offset: 0x2213C, size: 0x8, addend: 0x0, symName: __ZNSt3__1neB8ue170006IP5NobleS2_EEbRKNS_16reverse_iteratorIT_EERKNS3_IT0_EE, symObjAddr: 0xA870, symBinAddr: 0x10000E638, symSize: 0x48 }
  - { offsetInCU: 0x13651, offset: 0x2221A, size: 0x8, addend: 0x0, symName: __ZNSt3__1miB8ue170006IP4CardS2_EEDTmicldtfp_4baseEcldtfp0_4baseEERKNS_11__wrap_iterIT_EERKNS4_IT0_EE, symObjAddr: 0xAF74, symBinAddr: 0x10000ED3C, symSize: 0x48 }
  - { offsetInCU: 0x1369D, offset: 0x22266, size: 0x8, addend: 0x0, symName: __ZNSt3__1ltB8ue170006IP4CardEEbRKNS_11__wrap_iterIT_EES7_, symObjAddr: 0xB018, symBinAddr: 0x10000EDE0, symSize: 0x48 }
  - { offsetInCU: 0x136E0, offset: 0x222A9, size: 0x8, addend: 0x0, symName: __ZNSt3__113__countl_zeroB8ue170006ImEEiT_, symObjAddr: 0xB37C, symBinAddr: 0x10000F144, symSize: 0x54 }
  - { offsetInCU: 0x13715, offset: 0x222DE, size: 0x8, addend: 0x0, symName: __ZNSt3__112__libcpp_clzB8ue170006Em, symObjAddr: 0xBA0C, symBinAddr: 0x10000F7C0, symSize: 0x1C }
  - { offsetInCU: 0x13741, offset: 0x2230A, size: 0x8, addend: 0x0, symName: __ZNSt3__19iter_swapB8ue170006INS_11__wrap_iterIP4CardEES4_EEvT_T0_, symObjAddr: 0xBA5C, symBinAddr: 0x10000F808, symSize: 0x50 }
  - { offsetInCU: 0x1378A, offset: 0x22353, size: 0x8, addend: 0x0, symName: __ZNSt3__14swapB8ue170006I4CardEENS_9enable_ifIXaasr21is_move_constructibleIT_EE5valuesr18is_move_assignableIS3_EE5valueEvE4typeERS3_S6_, symObjAddr: 0xBAAC, symBinAddr: 0x10000F858, symSize: 0x58 }
  - { offsetInCU: 0x137DB, offset: 0x223A4, size: 0x8, addend: 0x0, symName: __ZNSt3__122__make_exception_guardB8ue170006INS_6vectorI5NobleNS_9allocatorIS2_EEE16__destroy_vectorEEENS_28__exception_guard_exceptionsIT_EES8_, symObjAddr: 0xBD10, symBinAddr: 0x10000FABC, symSize: 0x40 }
  - { offsetInCU: 0x13810, offset: 0x223D9, size: 0x8, addend: 0x0, symName: __ZNSt3__130__uninitialized_allocator_copyB8ue170006INS_9allocatorI5NobleEEPS2_S4_S4_EET2_RT_T0_T1_S5_, symObjAddr: 0xBF28, symBinAddr: 0x10000FCD4, symSize: 0x80 }
  - { offsetInCU: 0x138AD, offset: 0x22476, size: 0x8, addend: 0x0, symName: __ZNSt3__114__unwrap_rangeB8ue170006IP5NobleS2_EENS_4pairIT0_S4_EET_S6_, symObjAddr: 0xBFA8, symBinAddr: 0x10000FD54, symSize: 0x60 }
  - { offsetInCU: 0x138F9, offset: 0x224C2, size: 0x8, addend: 0x0, symName: __ZNSt3__135__uninitialized_allocator_copy_implB8ue170006INS_9allocatorI5NobleEES2_S2_S2_LPv0EEEPT2_RT_PT0_SA_S6_, symObjAddr: 0xC008, symBinAddr: 0x10000FDB4, symSize: 0x38 }
  - { offsetInCU: 0x1397C, offset: 0x22545, size: 0x8, addend: 0x0, symName: __ZNSt3__113__unwrap_iterB8ue170006IP5NobleNS_18__unwrap_iter_implIS2_Lb1EEELi0EEEDTclsrT0_8__unwrapclsr3stdE7declvalIT_EEEES6_, symObjAddr: 0xC040, symBinAddr: 0x10000FDEC, symSize: 0x24 }
  - { offsetInCU: 0x139C0, offset: 0x22589, size: 0x8, addend: 0x0, symName: __ZNSt3__113__rewrap_iterB8ue170006IP5NobleS2_NS_18__unwrap_iter_implIS2_Lb1EEEEET_S5_T0_, symObjAddr: 0xC064, symBinAddr: 0x10000FE10, symSize: 0x3C }
  - { offsetInCU: 0x13A15, offset: 0x225DE, size: 0x8, addend: 0x0, symName: __ZNSt3__19make_pairB8ue170006IP5NobleS2_EENS_4pairINS_18__unwrap_ref_decayIT_E4typeENS4_IT0_E4typeEEEOS5_OS8_, symObjAddr: 0xC0A0, symBinAddr: 0x10000FE4C, symSize: 0x38 }
  - { offsetInCU: 0x13B69, offset: 0x22732, size: 0x8, addend: 0x0, symName: __ZNSt3__14copyB8ue170006IP5NobleS2_EET0_T_S4_S3_, symObjAddr: 0xC148, symBinAddr: 0x10000FEF4, symSize: 0x40 }
  - { offsetInCU: 0x13BC3, offset: 0x2278C, size: 0x8, addend: 0x0, symName: __ZNSt3__16__copyB8ue170006INS_17_ClassicAlgPolicyEP5NobleS3_S3_EENS_4pairIT0_T2_EES5_T1_S6_, symObjAddr: 0xC188, symBinAddr: 0x10000FF34, symSize: 0x44 }
  - { offsetInCU: 0x13C2F, offset: 0x227F8, size: 0x8, addend: 0x0, symName: __ZNSt3__123__dispatch_copy_or_moveB8ue170006INS_17_ClassicAlgPolicyENS_11__copy_loopIS1_EENS_14__copy_trivialEP5NobleS6_S6_EENS_4pairIT2_T4_EES8_T3_S9_, symObjAddr: 0xC1CC, symBinAddr: 0x10000FF78, symSize: 0x44 }
  - { offsetInCU: 0x13CAD, offset: 0x22876, size: 0x8, addend: 0x0, symName: __ZNSt3__121__unwrap_and_dispatchB8ue170006INS_10__overloadINS_11__copy_loopINS_17_ClassicAlgPolicyEEENS_14__copy_trivialEEEP5NobleS8_S8_Li0EEENS_4pairIT0_T2_EESA_T1_SB_, symObjAddr: 0xC210, symBinAddr: 0x10000FFBC, symSize: 0xB4 }
  - { offsetInCU: 0x13D81, offset: 0x2294A, size: 0x8, addend: 0x0, symName: __ZNSt3__114__rewrap_rangeB8ue170006IP5NobleS2_EET_S3_T0_, symObjAddr: 0xC30C, symBinAddr: 0x1000100B8, symSize: 0x2C }
  - { offsetInCU: 0x13DCD, offset: 0x22996, size: 0x8, addend: 0x0, symName: __ZNSt3__119__copy_trivial_implB8ue170006I5NobleS1_EENS_4pairIPT_PT0_EES4_S4_S6_, symObjAddr: 0xC338, symBinAddr: 0x1000100E4, symSize: 0x80 }
  - { offsetInCU: 0x13E35, offset: 0x229FE, size: 0x8, addend: 0x0, symName: __ZNSt3__119__constexpr_memmoveB8ue170006I5NobleS1_Li0EEEPT_S3_PT0_NS_15__element_countE, symObjAddr: 0xC3B8, symBinAddr: 0x100010164, symSize: 0x64 }
  - { offsetInCU: 0x13EA3, offset: 0x22A6C, size: 0x8, addend: 0x0, symName: __ZNSt3__19make_pairB8ue170006IRP5NobleS2_EENS_4pairINS_18__unwrap_ref_decayIT_E4typeENS5_IT0_E4typeEEEOS6_OS9_, symObjAddr: 0xC41C, symBinAddr: 0x1000101C8, symSize: 0x38 }
  - { offsetInCU: 0x13F45, offset: 0x22B0E, size: 0x8, addend: 0x0, symName: __ZNSt3__1miB8ue170006IP5NobleS2_EEDTmicldtfp_4baseEcldtfp0_4baseEERKNS_11__wrap_iterIT_EERKNS4_IT0_EE, symObjAddr: 0xC760, symBinAddr: 0x10001050C, symSize: 0x48 }
  - { offsetInCU: 0x13F91, offset: 0x22B5A, size: 0x8, addend: 0x0, symName: __ZNSt3__1ltB8ue170006IP5NobleEEbRKNS_11__wrap_iterIT_EES7_, symObjAddr: 0xC7C8, symBinAddr: 0x100010574, symSize: 0x48 }
  - { offsetInCU: 0x13FD4, offset: 0x22B9D, size: 0x8, addend: 0x0, symName: __ZNSt3__19iter_swapB8ue170006INS_11__wrap_iterIP5NobleEES4_EEvT_T0_, symObjAddr: 0xC8C8, symBinAddr: 0x100010674, symSize: 0x50 }
  - { offsetInCU: 0x1401D, offset: 0x22BE6, size: 0x8, addend: 0x0, symName: __ZNSt3__14swapB8ue170006I5NobleEENS_9enable_ifIXaasr21is_move_constructibleIT_EE5valuesr18is_move_assignableIS3_EE5valueEvE4typeERS3_S6_, symObjAddr: 0xC918, symBinAddr: 0x1000106C4, symSize: 0x54 }
  - { offsetInCU: 0x1406E, offset: 0x22C37, size: 0x8, addend: 0x0, symName: __ZNSt3__1miB8ue170006IPK4CardS3_EEDTmicldtfp_4baseEcldtfp0_4baseEERKNS_11__wrap_iterIT_EERKNS5_IT0_EE, symObjAddr: 0xC9F8, symBinAddr: 0x1000107A4, symSize: 0x48 }
  - { offsetInCU: 0x140BA, offset: 0x22C83, size: 0x8, addend: 0x0, symName: __ZNSt3__14moveB8ue170006IP4CardS2_EET0_T_S4_S3_, symObjAddr: 0xCA6C, symBinAddr: 0x100010818, symSize: 0x40 }
  - { offsetInCU: 0x14114, offset: 0x22CDD, size: 0x8, addend: 0x0, symName: __ZNSt3__16__moveB8ue170006INS_17_ClassicAlgPolicyEP4CardS3_S3_EENS_4pairIT0_T2_EES5_T1_S6_, symObjAddr: 0xCAAC, symBinAddr: 0x100010858, symSize: 0x44 }
  - { offsetInCU: 0x14180, offset: 0x22D49, size: 0x8, addend: 0x0, symName: __ZNSt3__123__dispatch_copy_or_moveB8ue170006INS_17_ClassicAlgPolicyENS_11__move_loopIS1_EENS_14__move_trivialEP4CardS6_S6_EENS_4pairIT2_T4_EES8_T3_S9_, symObjAddr: 0xCAF0, symBinAddr: 0x10001089C, symSize: 0x44 }
  - { offsetInCU: 0x141FE, offset: 0x22DC7, size: 0x8, addend: 0x0, symName: __ZNSt3__121__unwrap_and_dispatchB8ue170006INS_10__overloadINS_11__move_loopINS_17_ClassicAlgPolicyEEENS_14__move_trivialEEEP4CardS8_S8_Li0EEENS_4pairIT0_T2_EESA_T1_SB_, symObjAddr: 0xCB34, symBinAddr: 0x1000108E0, symSize: 0xB4 }
  - { offsetInCU: 0x1428C, offset: 0x22E55, size: 0x8, addend: 0x0, symName: __ZNSt3__114__unwrap_rangeB8ue170006IP4CardS2_EENS_4pairIT0_S4_EET_S6_, symObjAddr: 0xCBE8, symBinAddr: 0x100010994, symSize: 0x60 }
  - { offsetInCU: 0x14423, offset: 0x22FEC, size: 0x8, addend: 0x0, symName: __ZNSt3__113__unwrap_iterB8ue170006IP4CardNS_18__unwrap_iter_implIS2_Lb1EEELi0EEEDTclsrT0_8__unwrapclsr3stdE7declvalIT_EEEES6_, symObjAddr: 0xCC90, symBinAddr: 0x100010A3C, symSize: 0x24 }
  - { offsetInCU: 0x14467, offset: 0x23030, size: 0x8, addend: 0x0, symName: __ZNSt3__19make_pairB8ue170006IP4CardS2_EENS_4pairINS_18__unwrap_ref_decayIT_E4typeENS4_IT0_E4typeEEEOS5_OS8_, symObjAddr: 0xCCB4, symBinAddr: 0x100010A60, symSize: 0x38 }
  - { offsetInCU: 0x144B6, offset: 0x2307F, size: 0x8, addend: 0x0, symName: __ZNSt3__114__rewrap_rangeB8ue170006IP4CardS2_EET_S3_T0_, symObjAddr: 0xCCEC, symBinAddr: 0x100010A98, symSize: 0x2C }
  - { offsetInCU: 0x14502, offset: 0x230CB, size: 0x8, addend: 0x0, symName: __ZNSt3__113__rewrap_iterB8ue170006IP4CardS2_NS_18__unwrap_iter_implIS2_Lb1EEEEET_S5_T0_, symObjAddr: 0xCD18, symBinAddr: 0x100010AC4, symSize: 0x3C }
  - { offsetInCU: 0x14557, offset: 0x23120, size: 0x8, addend: 0x0, symName: __ZNSt3__119__copy_trivial_implB8ue170006I4CardS1_EENS_4pairIPT_PT0_EES4_S4_S6_, symObjAddr: 0xCD54, symBinAddr: 0x100010B00, symSize: 0x88 }
  - { offsetInCU: 0x145BF, offset: 0x23188, size: 0x8, addend: 0x0, symName: __ZNSt3__119__constexpr_memmoveB8ue170006I4CardS1_Li0EEEPT_S3_PT0_NS_15__element_countE, symObjAddr: 0xCDDC, symBinAddr: 0x100010B88, symSize: 0x68 }
  - { offsetInCU: 0x1462D, offset: 0x231F6, size: 0x8, addend: 0x0, symName: __ZNSt3__19make_pairB8ue170006IRP4CardS2_EENS_4pairINS_18__unwrap_ref_decayIT_E4typeENS5_IT0_E4typeEEEOS6_OS9_, symObjAddr: 0xCE44, symBinAddr: 0x100010BF0, symSize: 0x38 }
  - { offsetInCU: 0x146CF, offset: 0x23298, size: 0x8, addend: 0x0, symName: __ZNSt3__112__to_addressB8ue170006I4MoveEEPT_S3_, symObjAddr: 0xD4A0, symBinAddr: 0x10001124C, symSize: 0x14 }
  - { offsetInCU: 0x14704, offset: 0x232CD, size: 0x8, addend: 0x0, symName: __ZNSt3__119__allocate_at_leastB8ue170006INS_9allocatorI4MoveEEEENS_19__allocation_resultINS_16allocator_traitsIT_E7pointerEEERS6_m, symObjAddr: 0xDD80, symBinAddr: 0x100011B2C, symSize: 0x40 }
  - { offsetInCU: 0x14747, offset: 0x23310, size: 0x8, addend: 0x0, symName: __ZNSt3__142__uninitialized_allocator_move_if_noexceptB8ue170006INS_9allocatorI4MoveEENS_16reverse_iteratorIPS2_EES6_S2_vEET1_RT_T0_SA_S7_, symObjAddr: 0xDF38, symBinAddr: 0x100011CE4, symSize: 0x78 }
  - { offsetInCU: 0x147C5, offset: 0x2338E, size: 0x8, addend: 0x0, symName: __ZNSt3__14swapB8ue170006IP4MoveEENS_9enable_ifIXaasr21is_move_constructibleIT_EE5valuesr18is_move_assignableIS4_EE5valueEvE4typeERS4_S7_, symObjAddr: 0xDFFC, symBinAddr: 0x100011DA8, symSize: 0x3C }
  - { offsetInCU: 0x14816, offset: 0x233DF, size: 0x8, addend: 0x0, symName: __ZNSt3__14moveB8ue170006INS_16reverse_iteratorIP4MoveEES4_EET0_T_S6_S5_, symObjAddr: 0xE100, symBinAddr: 0x100011EAC, symSize: 0x78 }
  - { offsetInCU: 0x14870, offset: 0x23439, size: 0x8, addend: 0x0, symName: __ZNSt3__16__moveB8ue170006INS_17_ClassicAlgPolicyENS_16reverse_iteratorIP4MoveEES5_S5_EENS_4pairIT0_T2_EES7_T1_S8_, symObjAddr: 0xE178, symBinAddr: 0x100011F24, symSize: 0x64 }
  - { offsetInCU: 0x148DC, offset: 0x234A5, size: 0x8, addend: 0x0, symName: __ZNSt3__123__dispatch_copy_or_moveB8ue170006INS_17_ClassicAlgPolicyENS_11__move_loopIS1_EENS_14__move_trivialENS_16reverse_iteratorIP4MoveEES8_S8_EENS_4pairIT2_T4_EESA_T3_SB_, symObjAddr: 0xE1DC, symBinAddr: 0x100011F88, symSize: 0x64 }
  - { offsetInCU: 0x1495A, offset: 0x23523, size: 0x8, addend: 0x0, symName: __ZNSt3__121__unwrap_and_dispatchB8ue170006INS_10__overloadINS_11__move_loopINS_17_ClassicAlgPolicyEEENS_14__move_trivialEEENS_16reverse_iteratorIP4MoveEESA_SA_Li0EEENS_4pairIT0_T2_EESC_T1_SD_, symObjAddr: 0xE240, symBinAddr: 0x100011FEC, symSize: 0x12C }
  - { offsetInCU: 0x149EA, offset: 0x235B3, size: 0x8, addend: 0x0, symName: __ZNSt3__114__unwrap_rangeB8ue170006INS_16reverse_iteratorIP4MoveEES4_EENS_4pairIT0_S6_EET_S8_, symObjAddr: 0xE36C, symBinAddr: 0x100012118, symSize: 0x84 }
  - { offsetInCU: 0x14B0B, offset: 0x236D4, size: 0x8, addend: 0x0, symName: __ZNSt3__113__unwrap_iterB8ue170006INS_16reverse_iteratorIP4MoveEENS_18__unwrap_iter_implIS4_Lb0EEELi0EEEDTclsrT0_8__unwrapclsr3stdE7declvalIT_EEEES8_, symObjAddr: 0xE48C, symBinAddr: 0x100012238, symSize: 0x44 }
  - { offsetInCU: 0x14B4F, offset: 0x23718, size: 0x8, addend: 0x0, symName: __ZNSt3__19make_pairB8ue170006INS_16reverse_iteratorIP4MoveEES4_EENS_4pairINS_18__unwrap_ref_decayIT_E4typeENS6_IT0_E4typeEEEOS7_OSA_, symObjAddr: 0xE4D0, symBinAddr: 0x10001227C, symSize: 0x38 }
  - { offsetInCU: 0x14B9E, offset: 0x23767, size: 0x8, addend: 0x0, symName: __ZNSt3__114__rewrap_rangeB8ue170006INS_16reverse_iteratorIP4MoveEES4_EET_S5_T0_, symObjAddr: 0xE508, symBinAddr: 0x1000122B4, symSize: 0x5C }
  - { offsetInCU: 0x14BEA, offset: 0x237B3, size: 0x8, addend: 0x0, symName: __ZNSt3__113__rewrap_iterB8ue170006INS_16reverse_iteratorIP4MoveEES4_NS_18__unwrap_iter_implIS4_Lb0EEEEET_S7_T0_, symObjAddr: 0xE564, symBinAddr: 0x100012310, symSize: 0x74 }
  - { offsetInCU: 0x14C3F, offset: 0x23808, size: 0x8, addend: 0x0, symName: __ZNSt3__1neB8ue170006IP4MoveS2_EEbRKNS_16reverse_iteratorIT_EERKNS3_IT0_EE, symObjAddr: 0xE5D8, symBinAddr: 0x100012384, symSize: 0x48 }
  - { offsetInCU: 0x1518B, offset: 0x23D54, size: 0x8, addend: 0x0, symName: __ZSt28__throw_bad_array_new_lengthB8ue170006v, symObjAddr: 0x8B4C, symBinAddr: 0x10000CB8C, symSize: 0x34 }
  - { offsetInCU: 0x15D1B, offset: 0x248E4, size: 0x8, addend: 0x0, symName: __ZNSt3__16vectorI4CardNS_9allocatorIS1_EEE26__swap_out_circular_bufferERNS_14__split_bufferIS1_RS3_EE, symObjAddr: 0x8454, symBinAddr: 0x10000C494, symSize: 0x110 }
  - { offsetInCU: 0x15D77, offset: 0x24940, size: 0x8, addend: 0x0, symName: __ZNSt3__16vectorI5NobleNS_9allocatorIS1_EEE26__swap_out_circular_bufferERNS_14__split_bufferIS1_RS3_EE, symObjAddr: 0x9CCC, symBinAddr: 0x10000DA94, symSize: 0x110 }
  - { offsetInCU: 0x15E1A, offset: 0x249E3, size: 0x8, addend: 0x0, symName: __ZNSt3__124uniform_int_distributionIlEclINS_23mersenne_twister_engineIjLm32ELm624ELm397ELm31ELj2567483615ELm11ELj4294967295ELm7ELj2636928640ELm15ELj4022730752ELm18ELj1812433253EEEEElRT_RKNS1_10param_typeE, symObjAddr: 0xB060, symBinAddr: 0x10000EE28, symSize: 0x174 }
  - { offsetInCU: 0x160F0, offset: 0x24CB9, size: 0x8, addend: 0x0, symName: __ZNSt3__16vectorI4MoveNS_9allocatorIS1_EEE26__swap_out_circular_bufferERNS_14__split_bufferIS1_RS3_EE, symObjAddr: 0xDA10, symBinAddr: 0x1000117BC, symSize: 0x110 }
  - { offsetInCU: 0x17E47, offset: 0x26A10, size: 0x8, addend: 0x0, symName: __Z9loadCardsRKNSt3__112basic_stringIcNS_11char_traitsIcEENS_9allocatorIcEEEE, symObjAddr: 0x0, symBinAddr: 0x1000071B4, symSize: 0x5E0 }
  - { offsetInCU: 0x17FF8, offset: 0x26BC1, size: 0x8, addend: 0x0, symName: __ZNSt3__114basic_ifstreamIcNS_11char_traitsIcEEEC1ERKNS_12basic_stringIcS2_NS_9allocatorIcEEEEj, symObjAddr: 0x5E0, symBinAddr: 0x100007794, symSize: 0x16C }
  - { offsetInCU: 0x18042, offset: 0x26C0B, size: 0x8, addend: 0x0, symName: __ZNKSt3__114basic_ifstreamIcNS_11char_traitsIcEEE7is_openEv, symObjAddr: 0x74C, symBinAddr: 0x100007900, symSize: 0x2C }
  - { offsetInCU: 0x180BA, offset: 0x26C83, size: 0x8, addend: 0x0, symName: __ZNKSt3__114basic_ifstreamIcNS_11char_traitsIcEEE5rdbufEv, symObjAddr: 0x864, symBinAddr: 0x10000792C, symSize: 0x18 }
  - { offsetInCU: 0x180E2, offset: 0x26CAB, size: 0x8, addend: 0x0, symName: __ZNSt3__112basic_stringIcNS_11char_traitsIcEENS_9allocatorIcEEEixB8ue170006Em, symObjAddr: 0x92C, symBinAddr: 0x100007944, symSize: 0x30 }
  - { offsetInCU: 0x1811B, offset: 0x26CE4, size: 0x8, addend: 0x0, symName: __ZN11simple_json13extractObjectERKNSt3__112basic_stringIcNS0_11char_traitsIcEENS0_9allocatorIcEEEES8_, symObjAddr: 0x12AC, symBinAddr: 0x100007D80, symSize: 0x214 }
  - { offsetInCU: 0x18197, offset: 0x26D60, size: 0x8, addend: 0x0, symName: __ZL10parseColorRKNSt3__112basic_stringIcNS_11char_traitsIcEENS_9allocatorIcEEEE, symObjAddr: 0xCBC, symBinAddr: 0x100007974, symSize: 0x190 }
  - { offsetInCU: 0x181C3, offset: 0x26D8C, size: 0x8, addend: 0x0, symName: __ZL11parseTokensRKNSt3__112basic_stringIcNS_11char_traitsIcEENS_9allocatorIcEEEE, symObjAddr: 0x1030, symBinAddr: 0x100007B04, symSize: 0x27C }
  - { offsetInCU: 0x181FF, offset: 0x26DC8, size: 0x8, addend: 0x0, symName: __ZNSt3__16vectorI4CardNS_9allocatorIS1_EEE9push_backB8ue170006ERKS1_, symObjAddr: 0x14C0, symBinAddr: 0x100007F94, symSize: 0x6C }
  - { offsetInCU: 0x18240, offset: 0x26E09, size: 0x8, addend: 0x0, symName: __ZNSt3__114basic_ifstreamIcNS_11char_traitsIcEEED1Ev, symObjAddr: 0x1598, symBinAddr: 0x100008000, symSize: 0x40 }
  - { offsetInCU: 0x1826C, offset: 0x26E35, size: 0x8, addend: 0x0, symName: __Z10loadNoblesRKNSt3__112basic_stringIcNS_11char_traitsIcEENS_9allocatorIcEEEE, symObjAddr: 0x15D8, symBinAddr: 0x100008040, symSize: 0x508 }
  - { offsetInCU: 0x18328, offset: 0x26EF1, size: 0x8, addend: 0x0, symName: __ZNSt3__16vectorI5NobleNS_9allocatorIS1_EEE9push_backB8ue170006ERKS1_, symObjAddr: 0x1B38, symBinAddr: 0x100008548, symSize: 0x6C }
  - { offsetInCU: 0x1835E, offset: 0x26F27, size: 0x8, addend: 0x0, symName: __Z14initializeGameR9GameStateRKNSt3__16vectorI4CardNS1_9allocatorIS3_EEEERKNS2_I5NobleNS4_IS9_EEEEj, symObjAddr: 0x1BD0, symBinAddr: 0x1000085B4, symSize: 0x5E4 }
  - { offsetInCU: 0x186A5, offset: 0x2726E, size: 0x8, addend: 0x0, symName: __ZN9GameStateaSEOS_, symObjAddr: 0x21E0, symBinAddr: 0x100008B98, symSize: 0x108 }
  - { offsetInCU: 0x1870C, offset: 0x272D5, size: 0x8, addend: 0x0, symName: __ZNSt3__123mersenne_twister_engineIjLm32ELm624ELm397ELm31ELj2567483615ELm11ELj4294967295ELm7ELj2636928640ELm15ELj4022730752ELm18ELj1812433253EEC1B8ue170006Ej, symObjAddr: 0x2314, symBinAddr: 0x100008CA0, symSize: 0x34 }
  - { offsetInCU: 0x18744, offset: 0x2730D, size: 0x8, addend: 0x0, symName: __ZNKSt3__16vectorI4CardNS_9allocatorIS1_EEE5beginB8ue170006Ev, symObjAddr: 0x2348, symBinAddr: 0x100008CD4, symSize: 0x30 }
  - { offsetInCU: 0x1876C, offset: 0x27335, size: 0x8, addend: 0x0, symName: __ZNKSt3__16vectorI4CardNS_9allocatorIS1_EEE3endB8ue170006Ev, symObjAddr: 0x2378, symBinAddr: 0x100008D04, symSize: 0x30 }
  - { offsetInCU: 0x18794, offset: 0x2735D, size: 0x8, addend: 0x0, symName: __ZNKSt3__111__wrap_iterIPK4CardEdeB8ue170006Ev, symObjAddr: 0x23DC, symBinAddr: 0x100008D68, symSize: 0x18 }
  - { offsetInCU: 0x187BA, offset: 0x27383, size: 0x8, addend: 0x0, symName: __ZNSt3__111__wrap_iterIPK4CardEppB8ue170006Ev, symObjAddr: 0x23F4, symBinAddr: 0x100008D80, symSize: 0x20 }
  - { offsetInCU: 0x187E0, offset: 0x273A9, size: 0x8, addend: 0x0, symName: __ZNSt3__16vectorI4CardNS_9allocatorIS1_EEE5beginB8ue170006Ev, symObjAddr: 0x245C, symBinAddr: 0x100008DE8, symSize: 0x30 }
  - { offsetInCU: 0x18808, offset: 0x273D1, size: 0x8, addend: 0x0, symName: __ZNSt3__16vectorI4CardNS_9allocatorIS1_EEE3endB8ue170006Ev, symObjAddr: 0x248C, symBinAddr: 0x100008E18, symSize: 0x30 }
  - { offsetInCU: 0x18830, offset: 0x273F9, size: 0x8, addend: 0x0, symName: __ZNSt3__16vectorI4CardNS_9allocatorIS1_EEEixB8ue170006Em, symObjAddr: 0x24E4, symBinAddr: 0x100008E48, symSize: 0x2C }
  - { offsetInCU: 0x18867, offset: 0x27430, size: 0x8, addend: 0x0, symName: __ZNSt3__15arrayI4CardLm4EEixB8ue170006Em, symObjAddr: 0x2510, symBinAddr: 0x100008E74, symSize: 0x28 }
  - { offsetInCU: 0x1889B, offset: 0x27464, size: 0x8, addend: 0x0, symName: __ZNSt3__16vectorI5NobleNS_9allocatorIS1_EEEC1ERKS4_, symObjAddr: 0x2538, symBinAddr: 0x100008E9C, symSize: 0x34 }
  - { offsetInCU: 0x188D6, offset: 0x2749F, size: 0x8, addend: 0x0, symName: __ZNSt3__16vectorI5NobleNS_9allocatorIS1_EEE5beginB8ue170006Ev, symObjAddr: 0x25B4, symBinAddr: 0x100008F18, symSize: 0x30 }
  - { offsetInCU: 0x188FE, offset: 0x274C7, size: 0x8, addend: 0x0, symName: __ZNSt3__16vectorI5NobleNS_9allocatorIS1_EEE3endB8ue170006Ev, symObjAddr: 0x25E4, symBinAddr: 0x100008F48, symSize: 0x30 }
  - { offsetInCU: 0x18926, offset: 0x274EF, size: 0x8, addend: 0x0, symName: __ZNSt3__16vectorI5NobleNS_9allocatorIS1_EEEixB8ue170006Em, symObjAddr: 0x263C, symBinAddr: 0x100008F78, symSize: 0x24 }
  - { offsetInCU: 0x1895D, offset: 0x27526, size: 0x8, addend: 0x0, symName: __ZNSt3__15arrayI5NobleLm3EEixB8ue170006Em, symObjAddr: 0x2660, symBinAddr: 0x100008F9C, symSize: 0x20 }
  - { offsetInCU: 0x18990, offset: 0x27559, size: 0x8, addend: 0x0, symName: __Z9applyMoveR9GameStateRK4Move, symObjAddr: 0x2680, symBinAddr: 0x100008FBC, symSize: 0x654 }
  - { offsetInCU: 0x18AB3, offset: 0x2767C, size: 0x8, addend: 0x0, symName: __ZL13effectiveCostRK4CardRK6Player, symObjAddr: 0x2CE8, symBinAddr: 0x100009624, symSize: 0x134 }
  - { offsetInCU: 0x18AFD, offset: 0x276C6, size: 0x8, addend: 0x0, symName: __ZN6TokensmIERKS_, symObjAddr: 0x2E74, symBinAddr: 0x100009784, symSize: 0x90 }
  - { offsetInCU: 0x18B31, offset: 0x276FA, size: 0x8, addend: 0x0, symName: __ZN6TokenspLERKS_, symObjAddr: 0x2F04, symBinAddr: 0x100009814, symSize: 0x90 }
  - { offsetInCU: 0x18B65, offset: 0x2772E, size: 0x8, addend: 0x0, symName: __ZN6TokensixE5Color, symObjAddr: 0x2F94, symBinAddr: 0x1000098A4, symSize: 0xC0 }
  - { offsetInCU: 0x18B99, offset: 0x27762, size: 0x8, addend: 0x0, symName: __ZNSt3__16vectorI4CardNS_9allocatorIS1_EEE5eraseB8ue170006ENS_11__wrap_iterIPKS1_EE, symObjAddr: 0x306C, symBinAddr: 0x10000997C, symSize: 0x9C }
  - { offsetInCU: 0x18BEE, offset: 0x277B7, size: 0x8, addend: 0x0, symName: __ZNKSt3__111__wrap_iterIP4CardEplB8ue170006El, symObjAddr: 0x3108, symBinAddr: 0x100009A18, symSize: 0x3C }
  - { offsetInCU: 0x18C3A, offset: 0x27803, size: 0x8, addend: 0x0, symName: __ZNSt3__111__wrap_iterIPK4CardEC1B8ue170006IPS1_EERKNS0_IT_EEPNS_9enable_ifIXsr14is_convertibleIS7_S3_EE5valueEvE4typeE, symObjAddr: 0x3144, symBinAddr: 0x100009A54, symSize: 0x3C }
  - { offsetInCU: 0x18C86, offset: 0x2784F, size: 0x8, addend: 0x0, symName: __ZL10refillSlotR9GameStateii, symObjAddr: 0x3180, symBinAddr: 0x100009A90, symSize: 0x118 }
  - { offsetInCU: 0x18CCB, offset: 0x27894, size: 0x8, addend: 0x0, symName: __ZL11checkNoblesR9GameStatei, symObjAddr: 0x3298, symBinAddr: 0x100009BA8, symSize: 0x230 }
  - { offsetInCU: 0x18D64, offset: 0x2792D, size: 0x8, addend: 0x0, symName: __ZNSt3__16vectorI4CardNS_9allocatorIS1_EEE4backB8ue170006Ev, symObjAddr: 0x34C8, symBinAddr: 0x100009DD8, symSize: 0x1C }
  - { offsetInCU: 0x18D8A, offset: 0x27953, size: 0x8, addend: 0x0, symName: __ZNSt3__16vectorI4CardNS_9allocatorIS1_EEE8pop_backEv, symObjAddr: 0x34E4, symBinAddr: 0x100009DF4, symSize: 0x2C }
  - { offsetInCU: 0x18DB2, offset: 0x2797B, size: 0x8, addend: 0x0, symName: __ZNK6Tokens5totalEv, symObjAddr: 0x3510, symBinAddr: 0x100009E20, symSize: 0x40 }
  - { offsetInCU: 0x18DD7, offset: 0x279A0, size: 0x8, addend: 0x0, symName: __Z17findAllValidMovesRK9GameState, symObjAddr: 0x3550, symBinAddr: 0x100009E60, symSize: 0xA4C }
  - { offsetInCU: 0x19181, offset: 0x27D4A, size: 0x8, addend: 0x0, symName: __ZNSt3__16vectorI4MoveNS_9allocatorIS1_EEEC1B8ue170006Ev, symObjAddr: 0x3F9C, symBinAddr: 0x10000A8AC, symSize: 0x2C }
  - { offsetInCU: 0x191AB, offset: 0x27D74, size: 0x8, addend: 0x0, symName: __ZNK6TokensixE5Color, symObjAddr: 0x3FC8, symBinAddr: 0x10000A8D8, symSize: 0xC0 }
  - { offsetInCU: 0x191E4, offset: 0x27DAD, size: 0x8, addend: 0x0, symName: __ZN4MoveC1Ev, symObjAddr: 0x40A0, symBinAddr: 0x10000A9B0, symSize: 0x2C }
  - { offsetInCU: 0x19210, offset: 0x27DD9, size: 0x8, addend: 0x0, symName: __ZNSt3__16vectorI4MoveNS_9allocatorIS1_EEE9push_backB8ue170006ERKS1_, symObjAddr: 0x40CC, symBinAddr: 0x10000A9DC, symSize: 0x6C }
  - { offsetInCU: 0x19247, offset: 0x27E10, size: 0x8, addend: 0x0, symName: __ZL9canAffordRK4CardRK6Player, symObjAddr: 0x4160, symBinAddr: 0x10000AA48, symSize: 0x180 }
  - { offsetInCU: 0x192B9, offset: 0x27E82, size: 0x8, addend: 0x0, symName: __ZNKSt3__16vectorI4CardNS_9allocatorIS1_EEE5emptyB8ue170006Ev, symObjAddr: 0x430C, symBinAddr: 0x10000ABC8, symSize: 0x28 }
  - { offsetInCU: 0x192DF, offset: 0x27EA8, size: 0x8, addend: 0x0, symName: __ZNKSt3__16vectorI4MoveNS_9allocatorIS1_EEE5emptyB8ue170006Ev, symObjAddr: 0x4334, symBinAddr: 0x10000ABF0, symSize: 0x28 }
  - { offsetInCU: 0x19305, offset: 0x27ECE, size: 0x8, addend: 0x0, symName: __ZNSt3__16vectorI4MoveNS_9allocatorIS1_EEED1B8ue170006Ev, symObjAddr: 0x435C, symBinAddr: 0x10000AC18, symSize: 0x2C }
  - { offsetInCU: 0x1932E, offset: 0x27EF7, size: 0x8, addend: 0x0, symName: __Z10isGameOverRK9GameState, symObjAddr: 0x4388, symBinAddr: 0x10000AC44, symSize: 0x108 }
  - { offsetInCU: 0x1937A, offset: 0x27F43, size: 0x8, addend: 0x0, symName: __Z15determineWinnerRK9GameState, symObjAddr: 0x4490, symBinAddr: 0x10000AD4C, symSize: 0x118 }
  - { offsetInCU: 0x193C6, offset: 0x27F8F, size: 0x8, addend: 0x0, symName: __Z17moveToActionIndexRK4MoveRK9GameState, symObjAddr: 0x45A8, symBinAddr: 0x10000AE64, symSize: 0x65C }
  - { offsetInCU: 0x1945C, offset: 0x28025, size: 0x8, addend: 0x0, symName: __Z17actionIndexToMoveiRK9GameState, symObjAddr: 0x4CC8, symBinAddr: 0x10000B584, symSize: 0x4E8 }
  - { offsetInCU: 0x19545, offset: 0x2810E, size: 0x8, addend: 0x0, symName: __Z16getValidMoveMaskRK9GameState, symObjAddr: 0x51B0, symBinAddr: 0x10000BA6C, symSize: 0xEC }
  - { offsetInCU: 0x19603, offset: 0x281CC, size: 0x8, addend: 0x0, symName: __ZNSt3__16vectorI4MoveNS_9allocatorIS1_EEE5beginB8ue170006Ev, symObjAddr: 0x529C, symBinAddr: 0x10000BB58, symSize: 0x30 }
  - { offsetInCU: 0x1962B, offset: 0x281F4, size: 0x8, addend: 0x0, symName: __ZNSt3__16vectorI4MoveNS_9allocatorIS1_EEE3endB8ue170006Ev, symObjAddr: 0x52CC, symBinAddr: 0x10000BB88, symSize: 0x30 }
  - { offsetInCU: 0x19653, offset: 0x2821C, size: 0x8, addend: 0x0, symName: __ZNKSt3__111__wrap_iterIP4MoveEdeB8ue170006Ev, symObjAddr: 0x5330, symBinAddr: 0x10000BBEC, symSize: 0x18 }
  - { offsetInCU: 0x196B2, offset: 0x2827B, size: 0x8, addend: 0x0, symName: __ZNSt3__111__wrap_iterIP4MoveEppB8ue170006Ev, symObjAddr: 0x5368, symBinAddr: 0x10000BC04, symSize: 0x20 }
  - { offsetInCU: 0x196D8, offset: 0x282A1, size: 0x8, addend: 0x0, symName: __ZNKSt3__112basic_stringIcNS_11char_traitsIcEENS_9allocatorIcEEEixB8ue170006Em, symObjAddr: 0x607C, symBinAddr: 0x10000BC24, symSize: 0x30 }
  - { offsetInCU: 0x19712, offset: 0x282DB, size: 0x8, addend: 0x0, symName: __ZNSt3__114basic_ifstreamIcNS_11char_traitsIcEEED2Ev, symObjAddr: 0x61AC, symBinAddr: 0x10000BC54, symSize: 0x64 }
  - { offsetInCU: 0x1974C, offset: 0x28315, size: 0x8, addend: 0x0, symName: __ZTv0_n24_NSt3__114basic_ifstreamIcNS_11char_traitsIcEEED1Ev, symObjAddr: 0x6210, symBinAddr: 0x10000BCB8, symSize: 0x28 }
  - { offsetInCU: 0x19772, offset: 0x2833B, size: 0x8, addend: 0x0, symName: __ZN6PlayeraSEOS_, symObjAddr: 0x6548, symBinAddr: 0x10000BCE0, symSize: 0x74 }
  - { offsetInCU: 0x197A3, offset: 0x2836C, size: 0x8, addend: 0x0, symName: __ZNKSt3__111__wrap_iterIPK4CardE4baseB8ue170006Ev, symObjAddr: 0x75B0, symBinAddr: 0x10000BD9C, symSize: 0x18 }
  - { offsetInCU: 0x197D3, offset: 0x2839C, size: 0x8, addend: 0x0, symName: __ZNKSt3__16__lessIvvEclB8ue170006IiiEEbRKT_RKT0_, symObjAddr: 0x7648, symBinAddr: 0x10000BE34, symSize: 0x34 }
  - { offsetInCU: 0x19827, offset: 0x283F0, size: 0x8, addend: 0x0, symName: __ZNSt3__111__wrap_iterIP4CardEpLB8ue170006El, symObjAddr: 0x76FC, symBinAddr: 0x10000BEBC, symSize: 0x30 }
  - { offsetInCU: 0x1985B, offset: 0x28424, size: 0x8, addend: 0x0, symName: __ZNSt3__111__wrap_iterIPK4CardEC2B8ue170006IPS1_EERKNS0_IT_EEPNS_9enable_ifIXsr14is_convertibleIS7_S3_EE5valueEvE4typeE, symObjAddr: 0x772C, symBinAddr: 0x10000BEEC, symSize: 0x40 }
  - { offsetInCU: 0x198A7, offset: 0x28470, size: 0x8, addend: 0x0, symName: __ZNKSt3__111__wrap_iterIP4CardE4baseB8ue170006Ev, symObjAddr: 0x776C, symBinAddr: 0x10000BF2C, symSize: 0x18 }
  - { offsetInCU: 0x198CD, offset: 0x28496, size: 0x8, addend: 0x0, symName: __ZN4MoveC2Ev, symObjAddr: 0x7784, symBinAddr: 0x10000BF44, symSize: 0x64 }
  - { offsetInCU: 0x198F9, offset: 0x284C2, size: 0x8, addend: 0x0, symName: __ZNKSt3__111__wrap_iterIP4MoveE4baseB8ue170006Ev, symObjAddr: 0x7830, symBinAddr: 0x10000BFF0, symSize: 0x18 }
  - { offsetInCU: 0x19924, offset: 0x284ED, size: 0x8, addend: 0x0, symName: __ZNSt3__113basic_istreamIcNS_11char_traitsIcEEEC2B8ue170006EPNS_15basic_streambufIcS2_EE, symObjAddr: 0x7A64, symBinAddr: 0x10000C008, symSize: 0x64 }
  - { offsetInCU: 0x19969, offset: 0x28532, size: 0x8, addend: 0x0, symName: __ZNSt3__113basic_filebufIcNS_11char_traitsIcEEE4openERKNS_12basic_stringIcS2_NS_9allocatorIcEEEEj, symObjAddr: 0x7AC8, symBinAddr: 0x10000C06C, symSize: 0x44 }
  - { offsetInCU: 0x199AD, offset: 0x28576, size: 0x8, addend: 0x0, symName: __ZNKSt3__112basic_stringIcNS_11char_traitsIcEENS_9allocatorIcEEE5c_strB8ue170006Ev, symObjAddr: 0x7BA8, symBinAddr: 0x10000C0B0, symSize: 0x24 }
  - { offsetInCU: 0x199D3, offset: 0x2859C, size: 0x8, addend: 0x0, symName: __ZNKSt3__113basic_filebufIcNS_11char_traitsIcEEE7is_openEv, symObjAddr: 0x7C00, symBinAddr: 0x10000C0D4, symSize: 0x24 }
  - { offsetInCU: 0x19A00, offset: 0x285C9, size: 0x8, addend: 0x0, symName: __ZNSt3__16vectorI4CardNS_9allocatorIS1_EEE22__construct_one_at_endB8ue170006IJRKS1_EEEvDpOT_, symObjAddr: 0x80B8, symBinAddr: 0x10000C0F8, symSize: 0x90 }
  - { offsetInCU: 0x19A4F, offset: 0x28618, size: 0x8, addend: 0x0, symName: __ZNSt3__16vectorI4CardNS_9allocatorIS1_EEE21__push_back_slow_pathIRKS1_EEvOT_, symObjAddr: 0x8148, symBinAddr: 0x10000C188, symSize: 0xD8 }
  - { offsetInCU: 0x19AC6, offset: 0x2868F, size: 0x8, addend: 0x0, symName: __ZNSt3__16vectorI4CardNS_9allocatorIS1_EEE21_ConstructTransactionC1B8ue170006ERS4_m, symObjAddr: 0x8220, symBinAddr: 0x10000C260, symSize: 0x3C }
  - { offsetInCU: 0x19B0E, offset: 0x286D7, size: 0x8, addend: 0x0, symName: __ZNSt3__116allocator_traitsINS_9allocatorI4CardEEE9constructB8ue170006IS2_JRKS2_EvEEvRS3_PT_DpOT0_, symObjAddr: 0x825C, symBinAddr: 0x10000C29C, symSize: 0x34 }
  - { offsetInCU: 0x19B65, offset: 0x2872E, size: 0x8, addend: 0x0, symName: __ZNSt3__16vectorI4CardNS_9allocatorIS1_EEE21_ConstructTransactionD1B8ue170006Ev, symObjAddr: 0x8290, symBinAddr: 0x10000C2D0, symSize: 0x2C }
  - { offsetInCU: 0x19B8F, offset: 0x28758, size: 0x8, addend: 0x0, symName: __ZNSt3__16vectorI4CardNS_9allocatorIS1_EEE21_ConstructTransactionC2B8ue170006ERS4_m, symObjAddr: 0x82BC, symBinAddr: 0x10000C2FC, symSize: 0x4C }
  - { offsetInCU: 0x19BD7, offset: 0x287A0, size: 0x8, addend: 0x0, symName: __ZNSt3__19allocatorI4CardE9constructB8ue170006IS1_JRKS1_EEEvPT_DpOT0_, symObjAddr: 0x8308, symBinAddr: 0x10000C348, symSize: 0x34 }
  - { offsetInCU: 0x19C2D, offset: 0x287F6, size: 0x8, addend: 0x0, symName: __ZNSt3__16vectorI4CardNS_9allocatorIS1_EEE21_ConstructTransactionD2B8ue170006Ev, symObjAddr: 0x833C, symBinAddr: 0x10000C37C, symSize: 0x20 }
  - { offsetInCU: 0x19C57, offset: 0x28820, size: 0x8, addend: 0x0, symName: __ZNKSt3__16vectorI4CardNS_9allocatorIS1_EEE11__recommendB8ue170006Em, symObjAddr: 0x835C, symBinAddr: 0x10000C39C, symSize: 0xB4 }
  - { offsetInCU: 0x19CAC, offset: 0x28875, size: 0x8, addend: 0x0, symName: __ZNSt3__114__split_bufferI4CardRNS_9allocatorIS1_EEEC1EmmS4_, symObjAddr: 0x8410, symBinAddr: 0x10000C450, symSize: 0x44 }
  - { offsetInCU: 0x19D02, offset: 0x288CB, size: 0x8, addend: 0x0, symName: __ZNSt3__114__split_bufferI4CardRNS_9allocatorIS1_EEED1Ev, symObjAddr: 0x8564, symBinAddr: 0x10000C5A4, symSize: 0x2C }
  - { offsetInCU: 0x19D2E, offset: 0x288F7, size: 0x8, addend: 0x0, symName: __ZNKSt3__16vectorI4CardNS_9allocatorIS1_EEE8max_sizeEv, symObjAddr: 0x8590, symBinAddr: 0x10000C5D0, symSize: 0x60 }
  - { offsetInCU: 0x19D56, offset: 0x2891F, size: 0x8, addend: 0x0, symName: __ZNKSt3__16vectorI4CardNS_9allocatorIS1_EEE20__throw_length_errorB8ue170006Ev, symObjAddr: 0x85F0, symBinAddr: 0x10000C630, symSize: 0x1C }
  - { offsetInCU: 0x19D86, offset: 0x2894F, size: 0x8, addend: 0x0, symName: __ZNSt3__116allocator_traitsINS_9allocatorI4CardEEE8max_sizeB8ue170006IS3_vEEmRKS3_, symObjAddr: 0x8664, symBinAddr: 0x10000C6A4, symSize: 0x24 }
  - { offsetInCU: 0x19DB4, offset: 0x2897D, size: 0x8, addend: 0x0, symName: __ZNKSt3__16vectorI4CardNS_9allocatorIS1_EEE7__allocB8ue170006Ev, symObjAddr: 0x8688, symBinAddr: 0x10000C6C8, symSize: 0x28 }
  - { offsetInCU: 0x19DDA, offset: 0x289A3, size: 0x8, addend: 0x0, symName: __ZNSt3__114numeric_limitsIlE3maxB8ue170006Ev, symObjAddr: 0x86B0, symBinAddr: 0x10000C6F0, symSize: 0x14 }
  - { offsetInCU: 0x19DF8, offset: 0x289C1, size: 0x8, addend: 0x0, symName: __ZNKSt3__16__lessIvvEclB8ue170006ImmEEbRKT_RKT0_, symObjAddr: 0x8718, symBinAddr: 0x10000C758, symSize: 0x34 }
  - { offsetInCU: 0x19E4C, offset: 0x28A15, size: 0x8, addend: 0x0, symName: __ZNKSt3__19allocatorI4CardE8max_sizeB8ue170006Ev, symObjAddr: 0x874C, symBinAddr: 0x10000C78C, symSize: 0x18 }
  - { offsetInCU: 0x19E72, offset: 0x28A3B, size: 0x8, addend: 0x0, symName: __ZNKSt3__117__compressed_pairIP4CardNS_9allocatorIS1_EEE6secondB8ue170006Ev, symObjAddr: 0x8764, symBinAddr: 0x10000C7A4, symSize: 0x24 }
  - { offsetInCU: 0x19E98, offset: 0x28A61, size: 0x8, addend: 0x0, symName: __ZNKSt3__122__compressed_pair_elemINS_9allocatorI4CardEELi1ELb1EE5__getB8ue170006Ev, symObjAddr: 0x8788, symBinAddr: 0x10000C7C8, symSize: 0x14 }
  - { offsetInCU: 0x19EBE, offset: 0x28A87, size: 0x8, addend: 0x0, symName: __ZNSt3__123__libcpp_numeric_limitsIlLb1EE3maxB8ue170006Ev, symObjAddr: 0x879C, symBinAddr: 0x10000C7DC, symSize: 0x8 }
  - { offsetInCU: 0x19ED2, offset: 0x28A9B, size: 0x8, addend: 0x0, symName: __ZNSt12length_errorC1B8ue170006EPKc, symObjAddr: 0x8808, symBinAddr: 0x10000C848, symSize: 0x34 }
  - { offsetInCU: 0x19F0A, offset: 0x28AD3, size: 0x8, addend: 0x0, symName: __ZNSt12length_errorC2B8ue170006EPKc, symObjAddr: 0x883C, symBinAddr: 0x10000C87C, symSize: 0x4C }
  - { offsetInCU: 0x19F42, offset: 0x28B0B, size: 0x8, addend: 0x0, symName: __ZNSt3__114__split_bufferI4CardRNS_9allocatorIS1_EEEC2EmmS4_, symObjAddr: 0x88DC, symBinAddr: 0x10000C91C, symSize: 0xE0 }
  - { offsetInCU: 0x19FB5, offset: 0x28B7E, size: 0x8, addend: 0x0, symName: __ZNSt3__117__compressed_pairIP4CardRNS_9allocatorIS1_EEEC1B8ue170006IDnS5_EEOT_OT0_, symObjAddr: 0x89BC, symBinAddr: 0x10000C9FC, symSize: 0x3C }
  - { offsetInCU: 0x1A00D, offset: 0x28BD6, size: 0x8, addend: 0x0, symName: __ZNSt3__114__split_bufferI4CardRNS_9allocatorIS1_EEE7__allocB8ue170006Ev, symObjAddr: 0x8A38, symBinAddr: 0x10000CA78, symSize: 0x28 }
  - { offsetInCU: 0x1A033, offset: 0x28BFC, size: 0x8, addend: 0x0, symName: __ZNSt3__114__split_bufferI4CardRNS_9allocatorIS1_EEE9__end_capB8ue170006Ev, symObjAddr: 0x8A60, symBinAddr: 0x10000CAA0, symSize: 0x28 }
  - { offsetInCU: 0x1A059, offset: 0x28C22, size: 0x8, addend: 0x0, symName: __ZNSt3__117__compressed_pairIP4CardRNS_9allocatorIS1_EEEC2B8ue170006IDnS5_EEOT_OT0_, symObjAddr: 0x8A88, symBinAddr: 0x10000CAC8, symSize: 0x48 }
  - { offsetInCU: 0x1A0B1, offset: 0x28C7A, size: 0x8, addend: 0x0, symName: __ZNSt3__122__compressed_pair_elemIRNS_9allocatorI4CardEELi1ELb0EEC2B8ue170006IS4_vEEOT_, symObjAddr: 0x8AD0, symBinAddr: 0x10000CB10, symSize: 0x20 }
  - { offsetInCU: 0x1A0F3, offset: 0x28CBC, size: 0x8, addend: 0x0, symName: __ZNSt3__19allocatorI4CardE8allocateB8ue170006Em, symObjAddr: 0x8AF0, symBinAddr: 0x10000CB30, symSize: 0x5C }
  - { offsetInCU: 0x1A127, offset: 0x28CF0, size: 0x8, addend: 0x0, symName: __ZNSt3__117__compressed_pairIP4CardRNS_9allocatorIS1_EEE6secondB8ue170006Ev, symObjAddr: 0x8C30, symBinAddr: 0x10000CC70, symSize: 0x28 }
  - { offsetInCU: 0x1A14D, offset: 0x28D16, size: 0x8, addend: 0x0, symName: __ZNSt3__122__compressed_pair_elemIRNS_9allocatorI4CardEELi1ELb0EE5__getB8ue170006Ev, symObjAddr: 0x8C58, symBinAddr: 0x10000CC98, symSize: 0x18 }
  - { offsetInCU: 0x1A173, offset: 0x28D3C, size: 0x8, addend: 0x0, symName: __ZNSt3__117__compressed_pairIP4CardRNS_9allocatorIS1_EEE5firstB8ue170006Ev, symObjAddr: 0x8C70, symBinAddr: 0x10000CCB0, symSize: 0x24 }
  - { offsetInCU: 0x1A199, offset: 0x28D62, size: 0x8, addend: 0x0, symName: __ZNSt3__116reverse_iteratorIP4CardEC1B8ue170006ES2_, symObjAddr: 0x8D0C, symBinAddr: 0x10000CD4C, symSize: 0x34 }
  - { offsetInCU: 0x1A1D1, offset: 0x28D9A, size: 0x8, addend: 0x0, symName: __ZNKSt3__116reverse_iteratorIP4CardE4baseB8ue170006Ev, symObjAddr: 0x8D40, symBinAddr: 0x10000CD80, symSize: 0x18 }
  - { offsetInCU: 0x1A1F7, offset: 0x28DC0, size: 0x8, addend: 0x0, symName: __ZNKSt3__16vectorI4CardNS_9allocatorIS1_EEE14__annotate_newB8ue170006Em, symObjAddr: 0x8D94, symBinAddr: 0x10000CDD4, symSize: 0xC8 }
  - { offsetInCU: 0x1A24F, offset: 0x28E18, size: 0x8, addend: 0x0, symName: __ZNKSt3__111__move_loopINS_17_ClassicAlgPolicyEEclB8ue170006INS_16reverse_iteratorIP4CardEES7_S7_EENS_4pairIT_T1_EES9_T0_SA_, symObjAddr: 0x914C, symBinAddr: 0x10000D18C, symSize: 0x9C }
  - { offsetInCU: 0x1A2BF, offset: 0x28E88, size: 0x8, addend: 0x0, symName: __ZNSt3__18_IterOpsINS_17_ClassicAlgPolicyEE11__iter_moveB8ue170006IRNS_16reverse_iteratorIP4CardEEEENS_9enable_ifIXsr12is_referenceIDTdeclsr3stdE7declvalIRT_EEEEE5valueEDTclsr3stdE4movedeclsr3stdE7declvalISB_EEEEE4typeEOSA_, symObjAddr: 0x937C, symBinAddr: 0x10000D3BC, symSize: 0x28 }
  - { offsetInCU: 0x1A2EB, offset: 0x28EB4, size: 0x8, addend: 0x0, symName: __ZNKSt3__116reverse_iteratorIP4CardEdeB8ue170006Ev, symObjAddr: 0x93A4, symBinAddr: 0x10000D3E4, symSize: 0x28 }
  - { offsetInCU: 0x1A31F, offset: 0x28EE8, size: 0x8, addend: 0x0, symName: __ZNSt3__116reverse_iteratorIP4CardEppB8ue170006Ev, symObjAddr: 0x93CC, symBinAddr: 0x10000D40C, symSize: 0x20 }
  - { offsetInCU: 0x1A345, offset: 0x28F0E, size: 0x8, addend: 0x0, symName: __ZNSt3__18_IterOpsINS_17_ClassicAlgPolicyEE25__validate_iter_referenceB8ue170006IRNS_16reverse_iteratorIP4CardEEEEvv, symObjAddr: 0x93EC, symBinAddr: 0x10000D42C, symSize: 0x4 }
  - { offsetInCU: 0x1A363, offset: 0x28F2C, size: 0x8, addend: 0x0, symName: __ZNSt3__118__unwrap_iter_implINS_16reverse_iteratorIP4CardEELb0EE8__unwrapB8ue170006ES4_, symObjAddr: 0x93F0, symBinAddr: 0x10000D430, symSize: 0x24 }
  - { offsetInCU: 0x1A38B, offset: 0x28F54, size: 0x8, addend: 0x0, symName: __ZNSt3__14pairINS_16reverse_iteratorIP4CardEES4_EC1B8ue170006IS4_S4_LPv0EEEOT_OT0_, symObjAddr: 0x9414, symBinAddr: 0x10000D454, symSize: 0x3C }
  - { offsetInCU: 0x1A3EA, offset: 0x28FB3, size: 0x8, addend: 0x0, symName: __ZNSt3__14pairINS_16reverse_iteratorIP4CardEES4_EC2B8ue170006IS4_S4_LPv0EEEOT_OT0_, symObjAddr: 0x9450, symBinAddr: 0x10000D490, symSize: 0x34 }
  - { offsetInCU: 0x1A449, offset: 0x29012, size: 0x8, addend: 0x0, symName: __ZNSt3__118__unwrap_iter_implINS_16reverse_iteratorIP4CardEELb0EE8__rewrapB8ue170006ES4_S4_, symObjAddr: 0x9484, symBinAddr: 0x10000D4C4, symSize: 0x2C }
  - { offsetInCU: 0x1A477, offset: 0x29040, size: 0x8, addend: 0x0, symName: __ZNSt3__116reverse_iteratorIP4CardEC2B8ue170006ES2_, symObjAddr: 0x94B0, symBinAddr: 0x10000D4F0, symSize: 0x28 }
  - { offsetInCU: 0x1A4AF, offset: 0x29078, size: 0x8, addend: 0x0, symName: __ZNSt3__114__split_bufferI4CardRNS_9allocatorIS1_EEED2Ev, symObjAddr: 0x94D8, symBinAddr: 0x10000D518, symSize: 0x8C }
  - { offsetInCU: 0x1A4DB, offset: 0x290A4, size: 0x8, addend: 0x0, symName: __ZNSt3__114__split_bufferI4CardRNS_9allocatorIS1_EEE5clearB8ue170006Ev, symObjAddr: 0x9564, symBinAddr: 0x10000D5A4, symSize: 0x28 }
  - { offsetInCU: 0x1A501, offset: 0x290CA, size: 0x8, addend: 0x0, symName: __ZNKSt3__114__split_bufferI4CardRNS_9allocatorIS1_EEE8capacityB8ue170006Ev, symObjAddr: 0x958C, symBinAddr: 0x10000D5CC, symSize: 0x40 }
  - { offsetInCU: 0x1A527, offset: 0x290F0, size: 0x8, addend: 0x0, symName: __ZNSt3__114__split_bufferI4CardRNS_9allocatorIS1_EEE17__destruct_at_endB8ue170006EPS1_, symObjAddr: 0x95CC, symBinAddr: 0x10000D60C, symSize: 0x2C }
  - { offsetInCU: 0x1A55B, offset: 0x29124, size: 0x8, addend: 0x0, symName: __ZNSt3__114__split_bufferI4CardRNS_9allocatorIS1_EEE17__destruct_at_endB8ue170006EPS1_NS_17integral_constantIbLb0EEE, symObjAddr: 0x95F8, symBinAddr: 0x10000D638, symSize: 0x80 }
  - { offsetInCU: 0x1A59C, offset: 0x29165, size: 0x8, addend: 0x0, symName: __ZNKSt3__114__split_bufferI4CardRNS_9allocatorIS1_EEE9__end_capB8ue170006Ev, symObjAddr: 0x9678, symBinAddr: 0x10000D6B8, symSize: 0x28 }
  - { offsetInCU: 0x1A5C2, offset: 0x2918B, size: 0x8, addend: 0x0, symName: __ZNKSt3__117__compressed_pairIP4CardRNS_9allocatorIS1_EEE5firstB8ue170006Ev, symObjAddr: 0x96A0, symBinAddr: 0x10000D6E0, symSize: 0x24 }
  - { offsetInCU: 0x1A5E8, offset: 0x291B1, size: 0x8, addend: 0x0, symName: __ZNSt3__16vectorI5NobleNS_9allocatorIS1_EEE22__construct_one_at_endB8ue170006IJRKS1_EEEvDpOT_, symObjAddr: 0x993C, symBinAddr: 0x10000D704, symSize: 0x90 }
  - { offsetInCU: 0x1A637, offset: 0x29200, size: 0x8, addend: 0x0, symName: __ZNSt3__16vectorI5NobleNS_9allocatorIS1_EEE21__push_back_slow_pathIRKS1_EEvOT_, symObjAddr: 0x99CC, symBinAddr: 0x10000D794, symSize: 0xD8 }
  - { offsetInCU: 0x1A6AE, offset: 0x29277, size: 0x8, addend: 0x0, symName: __ZNSt3__16vectorI5NobleNS_9allocatorIS1_EEE21_ConstructTransactionC1B8ue170006ERS4_m, symObjAddr: 0x9AA4, symBinAddr: 0x10000D86C, symSize: 0x3C }
  - { offsetInCU: 0x1A6F6, offset: 0x292BF, size: 0x8, addend: 0x0, symName: __ZNSt3__116allocator_traitsINS_9allocatorI5NobleEEE9constructB8ue170006IS2_JRKS2_EvEEvRS3_PT_DpOT0_, symObjAddr: 0x9AE0, symBinAddr: 0x10000D8A8, symSize: 0x34 }
  - { offsetInCU: 0x1A74D, offset: 0x29316, size: 0x8, addend: 0x0, symName: __ZNSt3__16vectorI5NobleNS_9allocatorIS1_EEE21_ConstructTransactionD1B8ue170006Ev, symObjAddr: 0x9B14, symBinAddr: 0x10000D8DC, symSize: 0x2C }
  - { offsetInCU: 0x1A777, offset: 0x29340, size: 0x8, addend: 0x0, symName: __ZNSt3__16vectorI5NobleNS_9allocatorIS1_EEE21_ConstructTransactionC2B8ue170006ERS4_m, symObjAddr: 0x9B40, symBinAddr: 0x10000D908, symSize: 0x44 }
  - { offsetInCU: 0x1A7BF, offset: 0x29388, size: 0x8, addend: 0x0, symName: __ZNSt3__19allocatorI5NobleE9constructB8ue170006IS1_JRKS1_EEEvPT_DpOT0_, symObjAddr: 0x9B84, symBinAddr: 0x10000D94C, symSize: 0x30 }
  - { offsetInCU: 0x1A815, offset: 0x293DE, size: 0x8, addend: 0x0, symName: __ZNSt3__16vectorI5NobleNS_9allocatorIS1_EEE21_ConstructTransactionD2B8ue170006Ev, symObjAddr: 0x9BB4, symBinAddr: 0x10000D97C, symSize: 0x20 }
  - { offsetInCU: 0x1A83F, offset: 0x29408, size: 0x8, addend: 0x0, symName: __ZNKSt3__16vectorI5NobleNS_9allocatorIS1_EEE11__recommendB8ue170006Em, symObjAddr: 0x9BD4, symBinAddr: 0x10000D99C, symSize: 0xB4 }
  - { offsetInCU: 0x1A894, offset: 0x2945D, size: 0x8, addend: 0x0, symName: __ZNSt3__114__split_bufferI5NobleRNS_9allocatorIS1_EEEC1EmmS4_, symObjAddr: 0x9C88, symBinAddr: 0x10000DA50, symSize: 0x44 }
  - { offsetInCU: 0x1A8EA, offset: 0x294B3, size: 0x8, addend: 0x0, symName: __ZNSt3__114__split_bufferI5NobleRNS_9allocatorIS1_EEED1Ev, symObjAddr: 0x9DDC, symBinAddr: 0x10000DBA4, symSize: 0x2C }
  - { offsetInCU: 0x1A916, offset: 0x294DF, size: 0x8, addend: 0x0, symName: __ZNKSt3__16vectorI5NobleNS_9allocatorIS1_EEE8max_sizeEv, symObjAddr: 0x9E08, symBinAddr: 0x10000DBD0, symSize: 0x60 }
  - { offsetInCU: 0x1A93E, offset: 0x29507, size: 0x8, addend: 0x0, symName: __ZNKSt3__16vectorI5NobleNS_9allocatorIS1_EEE20__throw_length_errorB8ue170006Ev, symObjAddr: 0x9E68, symBinAddr: 0x10000DC30, symSize: 0x1C }
  - { offsetInCU: 0x1A96E, offset: 0x29537, size: 0x8, addend: 0x0, symName: __ZNSt3__116allocator_traitsINS_9allocatorI5NobleEEE8max_sizeB8ue170006IS3_vEEmRKS3_, symObjAddr: 0x9E84, symBinAddr: 0x10000DC4C, symSize: 0x24 }
  - { offsetInCU: 0x1A99C, offset: 0x29565, size: 0x8, addend: 0x0, symName: __ZNKSt3__16vectorI5NobleNS_9allocatorIS1_EEE7__allocB8ue170006Ev, symObjAddr: 0x9EA8, symBinAddr: 0x10000DC70, symSize: 0x28 }
  - { offsetInCU: 0x1A9C2, offset: 0x2958B, size: 0x8, addend: 0x0, symName: __ZNKSt3__19allocatorI5NobleE8max_sizeB8ue170006Ev, symObjAddr: 0x9ED0, symBinAddr: 0x10000DC98, symSize: 0x14 }
  - { offsetInCU: 0x1A9E8, offset: 0x295B1, size: 0x8, addend: 0x0, symName: __ZNKSt3__117__compressed_pairIP5NobleNS_9allocatorIS1_EEE6secondB8ue170006Ev, symObjAddr: 0x9EE4, symBinAddr: 0x10000DCAC, symSize: 0x24 }
  - { offsetInCU: 0x1AA0E, offset: 0x295D7, size: 0x8, addend: 0x0, symName: __ZNKSt3__122__compressed_pair_elemINS_9allocatorI5NobleEELi1ELb1EE5__getB8ue170006Ev, symObjAddr: 0x9F08, symBinAddr: 0x10000DCD0, symSize: 0x14 }
  - { offsetInCU: 0x1AA34, offset: 0x295FD, size: 0x8, addend: 0x0, symName: __ZNSt3__114__split_bufferI5NobleRNS_9allocatorIS1_EEEC2EmmS4_, symObjAddr: 0x9F1C, symBinAddr: 0x10000DCE4, symSize: 0xD4 }
  - { offsetInCU: 0x1AAA7, offset: 0x29670, size: 0x8, addend: 0x0, symName: __ZNSt3__117__compressed_pairIP5NobleRNS_9allocatorIS1_EEEC1B8ue170006IDnS5_EEOT_OT0_, symObjAddr: 0x9FF0, symBinAddr: 0x10000DDB8, symSize: 0x3C }
  - { offsetInCU: 0x1AAFF, offset: 0x296C8, size: 0x8, addend: 0x0, symName: __ZNSt3__114__split_bufferI5NobleRNS_9allocatorIS1_EEE7__allocB8ue170006Ev, symObjAddr: 0xA06C, symBinAddr: 0x10000DE34, symSize: 0x28 }
  - { offsetInCU: 0x1AB25, offset: 0x296EE, size: 0x8, addend: 0x0, symName: __ZNSt3__114__split_bufferI5NobleRNS_9allocatorIS1_EEE9__end_capB8ue170006Ev, symObjAddr: 0xA094, symBinAddr: 0x10000DE5C, symSize: 0x28 }
  - { offsetInCU: 0x1AB4B, offset: 0x29714, size: 0x8, addend: 0x0, symName: __ZNSt3__117__compressed_pairIP5NobleRNS_9allocatorIS1_EEEC2B8ue170006IDnS5_EEOT_OT0_, symObjAddr: 0xA0BC, symBinAddr: 0x10000DE84, symSize: 0x48 }
  - { offsetInCU: 0x1ABA3, offset: 0x2976C, size: 0x8, addend: 0x0, symName: __ZNSt3__122__compressed_pair_elemIRNS_9allocatorI5NobleEELi1ELb0EEC2B8ue170006IS4_vEEOT_, symObjAddr: 0xA104, symBinAddr: 0x10000DECC, symSize: 0x20 }
  - { offsetInCU: 0x1ABE5, offset: 0x297AE, size: 0x8, addend: 0x0, symName: __ZNSt3__19allocatorI5NobleE8allocateB8ue170006Em, symObjAddr: 0xA124, symBinAddr: 0x10000DEEC, symSize: 0x58 }
  - { offsetInCU: 0x1AC19, offset: 0x297E2, size: 0x8, addend: 0x0, symName: __ZNSt3__117__compressed_pairIP5NobleRNS_9allocatorIS1_EEE6secondB8ue170006Ev, symObjAddr: 0xA17C, symBinAddr: 0x10000DF44, symSize: 0x28 }
  - { offsetInCU: 0x1AC3F, offset: 0x29808, size: 0x8, addend: 0x0, symName: __ZNSt3__122__compressed_pair_elemIRNS_9allocatorI5NobleEELi1ELb0EE5__getB8ue170006Ev, symObjAddr: 0xA1A4, symBinAddr: 0x10000DF6C, symSize: 0x18 }
  - { offsetInCU: 0x1AC65, offset: 0x2982E, size: 0x8, addend: 0x0, symName: __ZNSt3__117__compressed_pairIP5NobleRNS_9allocatorIS1_EEE5firstB8ue170006Ev, symObjAddr: 0xA1BC, symBinAddr: 0x10000DF84, symSize: 0x24 }
  - { offsetInCU: 0x1AC8B, offset: 0x29854, size: 0x8, addend: 0x0, symName: __ZNSt3__116reverse_iteratorIP5NobleEC1B8ue170006ES2_, symObjAddr: 0xA258, symBinAddr: 0x10000E020, symSize: 0x34 }
  - { offsetInCU: 0x1ACC3, offset: 0x2988C, size: 0x8, addend: 0x0, symName: __ZNKSt3__116reverse_iteratorIP5NobleE4baseB8ue170006Ev, symObjAddr: 0xA28C, symBinAddr: 0x10000E054, symSize: 0x18 }
  - { offsetInCU: 0x1ACE9, offset: 0x298B2, size: 0x8, addend: 0x0, symName: __ZNKSt3__16vectorI5NobleNS_9allocatorIS1_EEE14__annotate_newB8ue170006Em, symObjAddr: 0xA2E0, symBinAddr: 0x10000E0A8, symSize: 0xAC }
  - { offsetInCU: 0x1AD37, offset: 0x29900, size: 0x8, addend: 0x0, symName: __ZNKSt3__111__move_loopINS_17_ClassicAlgPolicyEEclB8ue170006INS_16reverse_iteratorIP5NobleEES7_S7_EENS_4pairIT_T1_EES9_T0_SA_, symObjAddr: 0xA67C, symBinAddr: 0x10000E444, symSize: 0xA8 }
  - { offsetInCU: 0x1ADA7, offset: 0x29970, size: 0x8, addend: 0x0, symName: __ZNSt3__18_IterOpsINS_17_ClassicAlgPolicyEE11__iter_moveB8ue170006IRNS_16reverse_iteratorIP5NobleEEEENS_9enable_ifIXsr12is_referenceIDTdeclsr3stdE7declvalIRT_EEEEE5valueEDTclsr3stdE4movedeclsr3stdE7declvalISB_EEEEE4typeEOSA_, symObjAddr: 0xA8B8, symBinAddr: 0x10000E680, symSize: 0x28 }
  - { offsetInCU: 0x1ADD3, offset: 0x2999C, size: 0x8, addend: 0x0, symName: __ZNKSt3__116reverse_iteratorIP5NobleEdeB8ue170006Ev, symObjAddr: 0xA8E0, symBinAddr: 0x10000E6A8, symSize: 0x28 }
  - { offsetInCU: 0x1AE07, offset: 0x299D0, size: 0x8, addend: 0x0, symName: __ZNSt3__116reverse_iteratorIP5NobleEppB8ue170006Ev, symObjAddr: 0xA908, symBinAddr: 0x10000E6D0, symSize: 0x20 }
  - { offsetInCU: 0x1AE2D, offset: 0x299F6, size: 0x8, addend: 0x0, symName: __ZNSt3__18_IterOpsINS_17_ClassicAlgPolicyEE25__validate_iter_referenceB8ue170006IRNS_16reverse_iteratorIP5NobleEEEEvv, symObjAddr: 0xA928, symBinAddr: 0x10000E6F0, symSize: 0x4 }
  - { offsetInCU: 0x1AE4B, offset: 0x29A14, size: 0x8, addend: 0x0, symName: __ZNSt3__118__unwrap_iter_implINS_16reverse_iteratorIP5NobleEELb0EE8__unwrapB8ue170006ES4_, symObjAddr: 0xA92C, symBinAddr: 0x10000E6F4, symSize: 0x24 }
  - { offsetInCU: 0x1AE73, offset: 0x29A3C, size: 0x8, addend: 0x0, symName: __ZNSt3__14pairINS_16reverse_iteratorIP5NobleEES4_EC1B8ue170006IS4_S4_LPv0EEEOT_OT0_, symObjAddr: 0xA950, symBinAddr: 0x10000E718, symSize: 0x3C }
  - { offsetInCU: 0x1AED2, offset: 0x29A9B, size: 0x8, addend: 0x0, symName: __ZNSt3__14pairINS_16reverse_iteratorIP5NobleEES4_EC2B8ue170006IS4_S4_LPv0EEEOT_OT0_, symObjAddr: 0xA98C, symBinAddr: 0x10000E754, symSize: 0x34 }
  - { offsetInCU: 0x1AF31, offset: 0x29AFA, size: 0x8, addend: 0x0, symName: __ZNSt3__118__unwrap_iter_implINS_16reverse_iteratorIP5NobleEELb0EE8__rewrapB8ue170006ES4_S4_, symObjAddr: 0xA9C0, symBinAddr: 0x10000E788, symSize: 0x2C }
  - { offsetInCU: 0x1AF5F, offset: 0x29B28, size: 0x8, addend: 0x0, symName: __ZNSt3__116reverse_iteratorIP5NobleEC2B8ue170006ES2_, symObjAddr: 0xA9EC, symBinAddr: 0x10000E7B4, symSize: 0x28 }
  - { offsetInCU: 0x1AF97, offset: 0x29B60, size: 0x8, addend: 0x0, symName: __ZNSt3__114__split_bufferI5NobleRNS_9allocatorIS1_EEED2Ev, symObjAddr: 0xAA14, symBinAddr: 0x10000E7DC, symSize: 0x8C }
  - { offsetInCU: 0x1AFC3, offset: 0x29B8C, size: 0x8, addend: 0x0, symName: __ZNSt3__114__split_bufferI5NobleRNS_9allocatorIS1_EEE5clearB8ue170006Ev, symObjAddr: 0xAAA0, symBinAddr: 0x10000E868, symSize: 0x28 }
  - { offsetInCU: 0x1AFE9, offset: 0x29BB2, size: 0x8, addend: 0x0, symName: __ZNKSt3__114__split_bufferI5NobleRNS_9allocatorIS1_EEE8capacityB8ue170006Ev, symObjAddr: 0xAAC8, symBinAddr: 0x10000E890, symSize: 0x40 }
  - { offsetInCU: 0x1B00F, offset: 0x29BD8, size: 0x8, addend: 0x0, symName: __ZNSt3__114__split_bufferI5NobleRNS_9allocatorIS1_EEE17__destruct_at_endB8ue170006EPS1_, symObjAddr: 0xAB08, symBinAddr: 0x10000E8D0, symSize: 0x2C }
  - { offsetInCU: 0x1B043, offset: 0x29C0C, size: 0x8, addend: 0x0, symName: __ZNSt3__114__split_bufferI5NobleRNS_9allocatorIS1_EEE17__destruct_at_endB8ue170006EPS1_NS_17integral_constantIbLb0EEE, symObjAddr: 0xAB34, symBinAddr: 0x10000E8FC, symSize: 0x80 }
  - { offsetInCU: 0x1B084, offset: 0x29C4D, size: 0x8, addend: 0x0, symName: __ZNKSt3__114__split_bufferI5NobleRNS_9allocatorIS1_EEE9__end_capB8ue170006Ev, symObjAddr: 0xABB4, symBinAddr: 0x10000E97C, symSize: 0x28 }
  - { offsetInCU: 0x1B0AA, offset: 0x29C73, size: 0x8, addend: 0x0, symName: __ZNKSt3__117__compressed_pairIP5NobleRNS_9allocatorIS1_EEE5firstB8ue170006Ev, symObjAddr: 0xABDC, symBinAddr: 0x10000E9A4, symSize: 0x24 }
  - { offsetInCU: 0x1B0D0, offset: 0x29C99, size: 0x8, addend: 0x0, symName: __ZNSt3__123mersenne_twister_engineIjLm32ELm624ELm397ELm31ELj2567483615ELm11ELj4294967295ELm7ELj2636928640ELm15ELj4022730752ELm18ELj1812433253EEC2B8ue170006Ej, symObjAddr: 0xAC00, symBinAddr: 0x10000E9C8, symSize: 0x34 }
  - { offsetInCU: 0x1B108, offset: 0x29CD1, size: 0x8, addend: 0x0, symName: __ZNSt3__123mersenne_twister_engineIjLm32ELm624ELm397ELm31ELj2567483615ELm11ELj4294967295ELm7ELj2636928640ELm15ELj4022730752ELm18ELj1812433253EE4seedEj, symObjAddr: 0xAC34, symBinAddr: 0x10000E9FC, symSize: 0xC4 }
  - { offsetInCU: 0x1B15B, offset: 0x29D24, size: 0x8, addend: 0x0, symName: __ZNSt3__123mersenne_twister_engineIjLm32ELm624ELm397ELm31ELj2567483615ELm11ELj4294967295ELm7ELj2636928640ELm15ELj4022730752ELm18ELj1812433253EE8__rshiftB8ue170006ILm30EEENS_9enable_ifIXltT_L_ZNS1_3_DtEEEjE4typeEj, symObjAddr: 0xACF8, symBinAddr: 0x10000EAC0, symSize: 0x18 }
  - { offsetInCU: 0x1B188, offset: 0x29D51, size: 0x8, addend: 0x0, symName: __ZNKSt3__16vectorI4CardNS_9allocatorIS1_EEE11__make_iterB8ue170006EPKS1_, symObjAddr: 0xAD10, symBinAddr: 0x10000EAD8, symSize: 0x30 }
  - { offsetInCU: 0x1B1BD, offset: 0x29D86, size: 0x8, addend: 0x0, symName: __ZNSt3__111__wrap_iterIPK4CardEC1B8ue170006ES3_, symObjAddr: 0xAD40, symBinAddr: 0x10000EB08, symSize: 0x34 }
  - { offsetInCU: 0x1B1F5, offset: 0x29DBE, size: 0x8, addend: 0x0, symName: __ZNSt3__111__wrap_iterIPK4CardEC2B8ue170006ES3_, symObjAddr: 0xAD74, symBinAddr: 0x10000EB3C, symSize: 0x20 }
  - { offsetInCU: 0x1B22D, offset: 0x29DF6, size: 0x8, addend: 0x0, symName: __ZNSt3__16vectorI4CardNS_9allocatorIS1_EEE11__make_iterB8ue170006EPS1_, symObjAddr: 0xAD94, symBinAddr: 0x10000EB5C, symSize: 0x30 }
  - { offsetInCU: 0x1B262, offset: 0x29E2B, size: 0x8, addend: 0x0, symName: __ZNSt3__111__wrap_iterIP4CardEC1B8ue170006ES2_, symObjAddr: 0xADC4, symBinAddr: 0x10000EB8C, symSize: 0x34 }
  - { offsetInCU: 0x1B29A, offset: 0x29E63, size: 0x8, addend: 0x0, symName: __ZNSt3__111__wrap_iterIP4CardEC2B8ue170006ES2_, symObjAddr: 0xADF8, symBinAddr: 0x10000EBC0, symSize: 0x20 }
  - { offsetInCU: 0x1B2D2, offset: 0x29E9B, size: 0x8, addend: 0x0, symName: __ZNSt3__18_IterOpsINS_17_ClassicAlgPolicyEE4nextB8ue170006INS_11__wrap_iterIP4CardEEEET_S8_S8_, symObjAddr: 0xAF54, symBinAddr: 0x10000ED1C, symSize: 0x20 }
  - { offsetInCU: 0x1B309, offset: 0x29ED2, size: 0x8, addend: 0x0, symName: __ZNSt3__124uniform_int_distributionIlEC1B8ue170006Ev, symObjAddr: 0xAFBC, symBinAddr: 0x10000ED84, symSize: 0x3C }
  - { offsetInCU: 0x1B333, offset: 0x29EFC, size: 0x8, addend: 0x0, symName: __ZNSt3__111__wrap_iterIP4CardEmmB8ue170006Ev, symObjAddr: 0xAFF8, symBinAddr: 0x10000EDC0, symSize: 0x20 }
  - { offsetInCU: 0x1B359, offset: 0x29F22, size: 0x8, addend: 0x0, symName: __ZNSt3__124uniform_int_distributionIlE10param_typeC1B8ue170006Ell, symObjAddr: 0xB1D4, symBinAddr: 0x10000EF9C, symSize: 0x3C }
  - { offsetInCU: 0x1B3A4, offset: 0x29F6D, size: 0x8, addend: 0x0, symName: __ZNSt3__18_IterOpsINS_17_ClassicAlgPolicyEE9iter_swapB8ue170006IRNS_11__wrap_iterIP4CardEES7_EEvOT_OT0_, symObjAddr: 0xB210, symBinAddr: 0x10000EFD8, symSize: 0x44 }
  - { offsetInCU: 0x1B3E7, offset: 0x29FB0, size: 0x8, addend: 0x0, symName: __ZNSt3__111__wrap_iterIP4CardEppB8ue170006Ev, symObjAddr: 0xB254, symBinAddr: 0x10000F01C, symSize: 0x20 }
  - { offsetInCU: 0x1B40D, offset: 0x29FD6, size: 0x8, addend: 0x0, symName: __ZNSt3__124uniform_int_distributionIlEC1B8ue170006Ell, symObjAddr: 0xB274, symBinAddr: 0x10000F03C, symSize: 0x3C }
  - { offsetInCU: 0x1B453, offset: 0x2A01C, size: 0x8, addend: 0x0, symName: __ZNSt3__124uniform_int_distributionIlEC2B8ue170006Ell, symObjAddr: 0xB2B0, symBinAddr: 0x10000F078, symSize: 0x3C }
  - { offsetInCU: 0x1B499, offset: 0x2A062, size: 0x8, addend: 0x0, symName: __ZNKSt3__124uniform_int_distributionIlE10param_type1bB8ue170006Ev, symObjAddr: 0xB2EC, symBinAddr: 0x10000F0B4, symSize: 0x18 }
  - { offsetInCU: 0x1B4BF, offset: 0x2A088, size: 0x8, addend: 0x0, symName: __ZNKSt3__124uniform_int_distributionIlE10param_type1aB8ue170006Ev, symObjAddr: 0xB304, symBinAddr: 0x10000F0CC, symSize: 0x18 }
  - { offsetInCU: 0x1B4E5, offset: 0x2A0AE, size: 0x8, addend: 0x0, symName: __ZNSt3__125__independent_bits_engineINS_23mersenne_twister_engineIjLm32ELm624ELm397ELm31ELj2567483615ELm11ELj4294967295ELm7ELj2636928640ELm15ELj4022730752ELm18ELj1812433253EEEmEC1ERS2_m, symObjAddr: 0xB31C, symBinAddr: 0x10000F0E4, symSize: 0x3C }
  - { offsetInCU: 0x1B52C, offset: 0x2A0F5, size: 0x8, addend: 0x0, symName: __ZNSt3__125__independent_bits_engineINS_23mersenne_twister_engineIjLm32ELm624ELm397ELm31ELj2567483615ELm11ELj4294967295ELm7ELj2636928640ELm15ELj4022730752ELm18ELj1812433253EEEmEclB8ue170006Ev, symObjAddr: 0xB358, symBinAddr: 0x10000F120, symSize: 0x24 }
  - { offsetInCU: 0x1B552, offset: 0x2A11B, size: 0x8, addend: 0x0, symName: __ZNSt3__125__independent_bits_engineINS_23mersenne_twister_engineIjLm32ELm624ELm397ELm31ELj2567483615ELm11ELj4294967295ELm7ELj2636928640ELm15ELj4022730752ELm18ELj1812433253EEEmEC2ERS2_m, symObjAddr: 0xB3E4, symBinAddr: 0x10000F198, symSize: 0x264 }
  - { offsetInCU: 0x1B599, offset: 0x2A162, size: 0x8, addend: 0x0, symName: __ZNSt3__125__independent_bits_engineINS_23mersenne_twister_engineIjLm32ELm624ELm397ELm31ELj2567483615ELm11ELj4294967295ELm7ELj2636928640ELm15ELj4022730752ELm18ELj1812433253EEEmE6__evalENS_17integral_constantIbLb1EEE, symObjAddr: 0xB648, symBinAddr: 0x10000F3FC, symSize: 0x1F0 }
  - { offsetInCU: 0x1B657, offset: 0x2A220, size: 0x8, addend: 0x0, symName: __ZNSt3__123mersenne_twister_engineIjLm32ELm624ELm397ELm31ELj2567483615ELm11ELj4294967295ELm7ELj2636928640ELm15ELj4022730752ELm18ELj1812433253EEclEv, symObjAddr: 0xB838, symBinAddr: 0x10000F5EC, symSize: 0x14C }
  - { offsetInCU: 0x1B6CA, offset: 0x2A293, size: 0x8, addend: 0x0, symName: __ZNSt3__123mersenne_twister_engineIjLm32ELm624ELm397ELm31ELj2567483615ELm11ELj4294967295ELm7ELj2636928640ELm15ELj4022730752ELm18ELj1812433253EE3minB8ue170006Ev, symObjAddr: 0xB984, symBinAddr: 0x10000F738, symSize: 0x8 }
  - { offsetInCU: 0x1B6DE, offset: 0x2A2A7, size: 0x8, addend: 0x0, symName: __ZNSt3__123mersenne_twister_engineIjLm32ELm624ELm397ELm31ELj2567483615ELm11ELj4294967295ELm7ELj2636928640ELm15ELj4022730752ELm18ELj1812433253EE8__rshiftB8ue170006ILm1EEENS_9enable_ifIXltT_L_ZNS1_3_DtEEEjE4typeEj, symObjAddr: 0xB98C, symBinAddr: 0x10000F740, symSize: 0x18 }
  - { offsetInCU: 0x1B70B, offset: 0x2A2D4, size: 0x8, addend: 0x0, symName: __ZNSt3__123mersenne_twister_engineIjLm32ELm624ELm397ELm31ELj2567483615ELm11ELj4294967295ELm7ELj2636928640ELm15ELj4022730752ELm18ELj1812433253EE8__rshiftB8ue170006ILm11EEENS_9enable_ifIXltT_L_ZNS1_3_DtEEEjE4typeEj, symObjAddr: 0xB9A4, symBinAddr: 0x10000F758, symSize: 0x18 }
  - { offsetInCU: 0x1B738, offset: 0x2A301, size: 0x8, addend: 0x0, symName: __ZNSt3__123mersenne_twister_engineIjLm32ELm624ELm397ELm31ELj2567483615ELm11ELj4294967295ELm7ELj2636928640ELm15ELj4022730752ELm18ELj1812433253EE8__lshiftB8ue170006ILm7EEENS_9enable_ifIXltT_Lm32EEjE4typeEj, symObjAddr: 0xB9BC, symBinAddr: 0x10000F770, symSize: 0x1C }
  - { offsetInCU: 0x1B765, offset: 0x2A32E, size: 0x8, addend: 0x0, symName: __ZNSt3__123mersenne_twister_engineIjLm32ELm624ELm397ELm31ELj2567483615ELm11ELj4294967295ELm7ELj2636928640ELm15ELj4022730752ELm18ELj1812433253EE8__lshiftB8ue170006ILm15EEENS_9enable_ifIXltT_Lm32EEjE4typeEj, symObjAddr: 0xB9D8, symBinAddr: 0x10000F78C, symSize: 0x1C }
  - { offsetInCU: 0x1B792, offset: 0x2A35B, size: 0x8, addend: 0x0, symName: __ZNSt3__123mersenne_twister_engineIjLm32ELm624ELm397ELm31ELj2567483615ELm11ELj4294967295ELm7ELj2636928640ELm15ELj4022730752ELm18ELj1812433253EE8__rshiftB8ue170006ILm18EEENS_9enable_ifIXltT_L_ZNS1_3_DtEEEjE4typeEj, symObjAddr: 0xB9F4, symBinAddr: 0x10000F7A8, symSize: 0x18 }
  - { offsetInCU: 0x1B7BF, offset: 0x2A388, size: 0x8, addend: 0x0, symName: __ZNSt3__124uniform_int_distributionIlE10param_typeC2B8ue170006Ell, symObjAddr: 0xBA30, symBinAddr: 0x10000F7DC, symSize: 0x2C }
  - { offsetInCU: 0x1B805, offset: 0x2A3CE, size: 0x8, addend: 0x0, symName: __ZNKSt3__111__wrap_iterIP4CardEdeB8ue170006Ev, symObjAddr: 0xBB04, symBinAddr: 0x10000F8B0, symSize: 0x18 }
  - { offsetInCU: 0x1B82B, offset: 0x2A3F4, size: 0x8, addend: 0x0, symName: __ZNSt3__16vectorI5NobleNS_9allocatorIS1_EEEC2ERKS4_, symObjAddr: 0xBB1C, symBinAddr: 0x10000F8C8, symSize: 0x94 }
  - { offsetInCU: 0x1B866, offset: 0x2A42F, size: 0x8, addend: 0x0, symName: __ZNSt3__116allocator_traitsINS_9allocatorI5NobleEEE37select_on_container_copy_constructionB8ue170006IS3_vvEES3_RKS3_, symObjAddr: 0xBBB0, symBinAddr: 0x10000F95C, symSize: 0x10 }
  - { offsetInCU: 0x1B89A, offset: 0x2A463, size: 0x8, addend: 0x0, symName: __ZNSt3__117__compressed_pairIP5NobleNS_9allocatorIS1_EEEC1B8ue170006IDnS4_EEOT_OT0_, symObjAddr: 0xBBC0, symBinAddr: 0x10000F96C, symSize: 0x3C }
  - { offsetInCU: 0x1B8F2, offset: 0x2A4BB, size: 0x8, addend: 0x0, symName: __ZNSt3__16vectorI5NobleNS_9allocatorIS1_EEE16__init_with_sizeB8ue170006IPS1_S6_EEvT_T0_m, symObjAddr: 0xBBFC, symBinAddr: 0x10000F9A8, symSize: 0xB8 }
  - { offsetInCU: 0x1B966, offset: 0x2A52F, size: 0x8, addend: 0x0, symName: __ZNSt3__117__compressed_pairIP5NobleNS_9allocatorIS1_EEEC2B8ue170006IDnS4_EEOT_OT0_, symObjAddr: 0xBCB4, symBinAddr: 0x10000FA60, symSize: 0x44 }
  - { offsetInCU: 0x1B9BE, offset: 0x2A587, size: 0x8, addend: 0x0, symName: __ZNSt3__122__compressed_pair_elemINS_9allocatorI5NobleEELi1ELb1EEC2B8ue170006IS3_vEEOT_, symObjAddr: 0xBCF8, symBinAddr: 0x10000FAA4, symSize: 0x18 }
  - { offsetInCU: 0x1BA00, offset: 0x2A5C9, size: 0x8, addend: 0x0, symName: __ZNSt3__16vectorI5NobleNS_9allocatorIS1_EEE11__vallocateB8ue170006Em, symObjAddr: 0xBD50, symBinAddr: 0x10000FAFC, symSize: 0xAC }
  - { offsetInCU: 0x1BA44, offset: 0x2A60D, size: 0x8, addend: 0x0, symName: __ZNSt3__16vectorI5NobleNS_9allocatorIS1_EEE18__construct_at_endIPS1_S6_EEvT_T0_m, symObjAddr: 0xBDFC, symBinAddr: 0x10000FBA8, symSize: 0x8C }
  - { offsetInCU: 0x1BABA, offset: 0x2A683, size: 0x8, addend: 0x0, symName: __ZNSt3__128__exception_guard_exceptionsINS_6vectorI5NobleNS_9allocatorIS2_EEE16__destroy_vectorEE10__completeB8ue170006Ev, symObjAddr: 0xBE88, symBinAddr: 0x10000FC34, symSize: 0x1C }
  - { offsetInCU: 0x1BAE0, offset: 0x2A6A9, size: 0x8, addend: 0x0, symName: __ZNSt3__128__exception_guard_exceptionsINS_6vectorI5NobleNS_9allocatorIS2_EEE16__destroy_vectorEED1B8ue170006Ev, symObjAddr: 0xBEA4, symBinAddr: 0x10000FC50, symSize: 0x2C }
  - { offsetInCU: 0x1BB0A, offset: 0x2A6D3, size: 0x8, addend: 0x0, symName: __ZNSt3__128__exception_guard_exceptionsINS_6vectorI5NobleNS_9allocatorIS2_EEE16__destroy_vectorEEC1B8ue170006ES6_, symObjAddr: 0xBED0, symBinAddr: 0x10000FC7C, symSize: 0x34 }
  - { offsetInCU: 0x1BB42, offset: 0x2A70B, size: 0x8, addend: 0x0, symName: __ZNSt3__128__exception_guard_exceptionsINS_6vectorI5NobleNS_9allocatorIS2_EEE16__destroy_vectorEEC2B8ue170006ES6_, symObjAddr: 0xBF04, symBinAddr: 0x10000FCB0, symSize: 0x24 }
  - { offsetInCU: 0x1BB98, offset: 0x2A761, size: 0x8, addend: 0x0, symName: __ZNSt3__14pairIP5NobleS2_EC1B8ue170006IS2_S2_LPv0EEEOT_OT0_, symObjAddr: 0xC0D8, symBinAddr: 0x10000FE84, symSize: 0x3C }
  - { offsetInCU: 0x1BBF7, offset: 0x2A7C0, size: 0x8, addend: 0x0, symName: __ZNSt3__14pairIP5NobleS2_EC2B8ue170006IS2_S2_LPv0EEEOT_OT0_, symObjAddr: 0xC114, symBinAddr: 0x10000FEC0, symSize: 0x34 }
  - { offsetInCU: 0x1BC60, offset: 0x2A829, size: 0x8, addend: 0x0, symName: __ZNKSt3__114__copy_trivialclB8ue170006I5NobleS2_Li0EEENS_4pairIPT_PT0_EES5_S5_S7_, symObjAddr: 0xC2C4, symBinAddr: 0x100010070, symSize: 0x48 }
  - { offsetInCU: 0x1BCC8, offset: 0x2A891, size: 0x8, addend: 0x0, symName: __ZNSt3__14pairIP5NobleS2_EC1B8ue170006IRS2_S2_LPv0EEEOT_OT0_, symObjAddr: 0xC454, symBinAddr: 0x100010200, symSize: 0x3C }
  - { offsetInCU: 0x1BD27, offset: 0x2A8F0, size: 0x8, addend: 0x0, symName: __ZNSt3__14pairIP5NobleS2_EC2B8ue170006IRS2_S2_LPv0EEEOT_OT0_, symObjAddr: 0xC490, symBinAddr: 0x10001023C, symSize: 0x34 }
  - { offsetInCU: 0x1BD86, offset: 0x2A94F, size: 0x8, addend: 0x0, symName: __ZNSt3__118__unwrap_iter_implIP5NobleLb1EE8__unwrapB8ue170006ES2_, symObjAddr: 0xC4C4, symBinAddr: 0x100010270, symSize: 0x24 }
  - { offsetInCU: 0x1BDA9, offset: 0x2A972, size: 0x8, addend: 0x0, symName: __ZNSt3__118__unwrap_iter_implIP5NobleLb1EE8__rewrapB8ue170006ES2_S2_, symObjAddr: 0xC4E8, symBinAddr: 0x100010294, symSize: 0x50 }
  - { offsetInCU: 0x1BDDA, offset: 0x2A9A3, size: 0x8, addend: 0x0, symName: __ZNSt3__128__exception_guard_exceptionsINS_6vectorI5NobleNS_9allocatorIS2_EEE16__destroy_vectorEED2B8ue170006Ev, symObjAddr: 0xC538, symBinAddr: 0x1000102E4, symSize: 0x48 }
  - { offsetInCU: 0x1BE04, offset: 0x2A9CD, size: 0x8, addend: 0x0, symName: __ZNSt3__16vectorI5NobleNS_9allocatorIS1_EEE11__make_iterB8ue170006EPS1_, symObjAddr: 0xC580, symBinAddr: 0x10001032C, symSize: 0x30 }
  - { offsetInCU: 0x1BE39, offset: 0x2AA02, size: 0x8, addend: 0x0, symName: __ZNSt3__111__wrap_iterIP5NobleEC1B8ue170006ES2_, symObjAddr: 0xC5B0, symBinAddr: 0x10001035C, symSize: 0x34 }
  - { offsetInCU: 0x1BE71, offset: 0x2AA3A, size: 0x8, addend: 0x0, symName: __ZNSt3__111__wrap_iterIP5NobleEC2B8ue170006ES2_, symObjAddr: 0xC5E4, symBinAddr: 0x100010390, symSize: 0x20 }
  - { offsetInCU: 0x1BEA9, offset: 0x2AA72, size: 0x8, addend: 0x0, symName: __ZNSt3__18_IterOpsINS_17_ClassicAlgPolicyEE4nextB8ue170006INS_11__wrap_iterIP5NobleEEEET_S8_S8_, symObjAddr: 0xC740, symBinAddr: 0x1000104EC, symSize: 0x20 }
  - { offsetInCU: 0x1BEE0, offset: 0x2AAA9, size: 0x8, addend: 0x0, symName: __ZNSt3__111__wrap_iterIP5NobleEmmB8ue170006Ev, symObjAddr: 0xC7A8, symBinAddr: 0x100010554, symSize: 0x20 }
  - { offsetInCU: 0x1BF0B, offset: 0x2AAD4, size: 0x8, addend: 0x0, symName: __ZNSt3__18_IterOpsINS_17_ClassicAlgPolicyEE9iter_swapB8ue170006IRNS_11__wrap_iterIP5NobleEES7_EEvOT_OT0_, symObjAddr: 0xC810, symBinAddr: 0x1000105BC, symSize: 0x44 }
  - { offsetInCU: 0x1BF4E, offset: 0x2AB17, size: 0x8, addend: 0x0, symName: __ZNKSt3__111__wrap_iterIP5NobleEplB8ue170006El, symObjAddr: 0xC854, symBinAddr: 0x100010600, symSize: 0x3C }
  - { offsetInCU: 0x1BF90, offset: 0x2AB59, size: 0x8, addend: 0x0, symName: __ZNSt3__111__wrap_iterIP5NobleEppB8ue170006Ev, symObjAddr: 0xC890, symBinAddr: 0x10001063C, symSize: 0x20 }
  - { offsetInCU: 0x1BFB6, offset: 0x2AB7F, size: 0x8, addend: 0x0, symName: __ZNKSt3__111__wrap_iterIP5NobleE4baseB8ue170006Ev, symObjAddr: 0xC8B0, symBinAddr: 0x10001065C, symSize: 0x18 }
  - { offsetInCU: 0x1BFDC, offset: 0x2ABA5, size: 0x8, addend: 0x0, symName: __ZNKSt3__111__wrap_iterIP5NobleEdeB8ue170006Ev, symObjAddr: 0xC96C, symBinAddr: 0x100010718, symSize: 0x18 }
  - { offsetInCU: 0x1C002, offset: 0x2ABCB, size: 0x8, addend: 0x0, symName: __ZNSt3__111__wrap_iterIP5NobleEpLB8ue170006El, symObjAddr: 0xC984, symBinAddr: 0x100010730, symSize: 0x28 }
  - { offsetInCU: 0x1C036, offset: 0x2ABFF, size: 0x8, addend: 0x0, symName: __ZNSt3__16vectorI4CardNS_9allocatorIS1_EEE17__destruct_at_endB8ue170006EPS1_, symObjAddr: 0xC9AC, symBinAddr: 0x100010758, symSize: 0x4C }
  - { offsetInCU: 0x1C07A, offset: 0x2AC43, size: 0x8, addend: 0x0, symName: __ZNKSt3__16vectorI4CardNS_9allocatorIS1_EEE6cbeginB8ue170006Ev, symObjAddr: 0xCA40, symBinAddr: 0x1000107EC, symSize: 0x2C }
  - { offsetInCU: 0x1C0C3, offset: 0x2AC8C, size: 0x8, addend: 0x0, symName: __ZNKSt3__114__move_trivialclB8ue170006I4CardS2_Li0EEENS_4pairIPT_PT0_EES5_S5_S7_, symObjAddr: 0xCC48, symBinAddr: 0x1000109F4, symSize: 0x48 }
  - { offsetInCU: 0x1C130, offset: 0x2ACF9, size: 0x8, addend: 0x0, symName: __ZNSt3__14pairIP4CardS2_EC1B8ue170006IRS2_S2_LPv0EEEOT_OT0_, symObjAddr: 0xCE7C, symBinAddr: 0x100010C28, symSize: 0x3C }
  - { offsetInCU: 0x1C18F, offset: 0x2AD58, size: 0x8, addend: 0x0, symName: __ZNSt3__14pairIP4CardS2_EC2B8ue170006IRS2_S2_LPv0EEEOT_OT0_, symObjAddr: 0xCEB8, symBinAddr: 0x100010C64, symSize: 0x34 }
  - { offsetInCU: 0x1C1EE, offset: 0x2ADB7, size: 0x8, addend: 0x0, symName: __ZNSt3__118__unwrap_iter_implIP4CardLb1EE8__unwrapB8ue170006ES2_, symObjAddr: 0xCEEC, symBinAddr: 0x100010C98, symSize: 0x24 }
  - { offsetInCU: 0x1C211, offset: 0x2ADDA, size: 0x8, addend: 0x0, symName: __ZNSt3__14pairIP4CardS2_EC1B8ue170006IS2_S2_LPv0EEEOT_OT0_, symObjAddr: 0xCF10, symBinAddr: 0x100010CBC, symSize: 0x3C }
  - { offsetInCU: 0x1C270, offset: 0x2AE39, size: 0x8, addend: 0x0, symName: __ZNSt3__14pairIP4CardS2_EC2B8ue170006IS2_S2_LPv0EEEOT_OT0_, symObjAddr: 0xCF4C, symBinAddr: 0x100010CF8, symSize: 0x34 }
  - { offsetInCU: 0x1C2CF, offset: 0x2AE98, size: 0x8, addend: 0x0, symName: __ZNSt3__118__unwrap_iter_implIP4CardLb1EE8__rewrapB8ue170006ES2_S2_, symObjAddr: 0xCF80, symBinAddr: 0x100010D2C, symSize: 0x58 }
  - { offsetInCU: 0x1C300, offset: 0x2AEC9, size: 0x8, addend: 0x0, symName: __ZNSt3__16vectorI4MoveNS_9allocatorIS1_EEEC2B8ue170006Ev, symObjAddr: 0xCFD8, symBinAddr: 0x100010D84, symSize: 0x4C }
  - { offsetInCU: 0x1C32A, offset: 0x2AEF3, size: 0x8, addend: 0x0, symName: __ZNSt3__117__compressed_pairIP4MoveNS_9allocatorIS1_EEEC1B8ue170006IDnNS_18__default_init_tagEEEOT_OT0_, symObjAddr: 0xD024, symBinAddr: 0x100010DD0, symSize: 0x3C }
  - { offsetInCU: 0x1C382, offset: 0x2AF4B, size: 0x8, addend: 0x0, symName: __ZNSt3__117__compressed_pairIP4MoveNS_9allocatorIS1_EEEC2B8ue170006IDnNS_18__default_init_tagEEEOT_OT0_, symObjAddr: 0xD060, symBinAddr: 0x100010E0C, symSize: 0x40 }
  - { offsetInCU: 0x1C3DA, offset: 0x2AFA3, size: 0x8, addend: 0x0, symName: __ZNSt3__122__compressed_pair_elemIP4MoveLi0ELb0EEC2B8ue170006IDnvEEOT_, symObjAddr: 0xD0A0, symBinAddr: 0x100010E4C, symSize: 0x1C }
  - { offsetInCU: 0x1C41C, offset: 0x2AFE5, size: 0x8, addend: 0x0, symName: __ZNSt3__122__compressed_pair_elemINS_9allocatorI4MoveEELi1ELb1EEC2B8ue170006ENS_18__default_init_tagE, symObjAddr: 0xD0BC, symBinAddr: 0x100010E68, symSize: 0x2C }
  - { offsetInCU: 0x1C451, offset: 0x2B01A, size: 0x8, addend: 0x0, symName: __ZNSt3__19allocatorI4MoveEC2B8ue170006Ev, symObjAddr: 0xD0E8, symBinAddr: 0x100010E94, symSize: 0x2C }
  - { offsetInCU: 0x1C47B, offset: 0x2B044, size: 0x8, addend: 0x0, symName: __ZNSt3__116__non_trivial_ifILb1ENS_9allocatorI4MoveEEEC2B8ue170006Ev, symObjAddr: 0xD114, symBinAddr: 0x100010EC0, symSize: 0x14 }
  - { offsetInCU: 0x1C4A5, offset: 0x2B06E, size: 0x8, addend: 0x0, symName: __ZNSt3__16vectorI4MoveNS_9allocatorIS1_EEED2B8ue170006Ev, symObjAddr: 0xD128, symBinAddr: 0x100010ED4, symSize: 0x44 }
  - { offsetInCU: 0x1C4CF, offset: 0x2B098, size: 0x8, addend: 0x0, symName: __ZNSt3__16vectorI4MoveNS_9allocatorIS1_EEE16__destroy_vectorC1B8ue170006ERS4_, symObjAddr: 0xD16C, symBinAddr: 0x100010F18, symSize: 0x34 }
  - { offsetInCU: 0x1C508, offset: 0x2B0D1, size: 0x8, addend: 0x0, symName: __ZNSt3__16vectorI4MoveNS_9allocatorIS1_EEE16__destroy_vectorclB8ue170006Ev, symObjAddr: 0xD1A0, symBinAddr: 0x100010F4C, symSize: 0x90 }
  - { offsetInCU: 0x1C52E, offset: 0x2B0F7, size: 0x8, addend: 0x0, symName: __ZNSt3__16vectorI4MoveNS_9allocatorIS1_EEE16__destroy_vectorC2B8ue170006ERS4_, symObjAddr: 0xD230, symBinAddr: 0x100010FDC, symSize: 0x20 }
  - { offsetInCU: 0x1C567, offset: 0x2B130, size: 0x8, addend: 0x0, symName: __ZNSt3__16vectorI4MoveNS_9allocatorIS1_EEE7__clearB8ue170006Ev, symObjAddr: 0xD250, symBinAddr: 0x100010FFC, symSize: 0x28 }
  - { offsetInCU: 0x1C58D, offset: 0x2B156, size: 0x8, addend: 0x0, symName: __ZNKSt3__16vectorI4MoveNS_9allocatorIS1_EEE17__annotate_deleteB8ue170006Ev, symObjAddr: 0xD278, symBinAddr: 0x100011024, symSize: 0xD4 }
  - { offsetInCU: 0x1C5B3, offset: 0x2B17C, size: 0x8, addend: 0x0, symName: __ZNSt3__116allocator_traitsINS_9allocatorI4MoveEEE10deallocateB8ue170006ERS3_PS2_m, symObjAddr: 0xD34C, symBinAddr: 0x1000110F8, symSize: 0x34 }
  - { offsetInCU: 0x1C5F5, offset: 0x2B1BE, size: 0x8, addend: 0x0, symName: __ZNSt3__16vectorI4MoveNS_9allocatorIS1_EEE7__allocB8ue170006Ev, symObjAddr: 0xD380, symBinAddr: 0x10001112C, symSize: 0x28 }
  - { offsetInCU: 0x1C61B, offset: 0x2B1E4, size: 0x8, addend: 0x0, symName: __ZNKSt3__16vectorI4MoveNS_9allocatorIS1_EEE8capacityB8ue170006Ev, symObjAddr: 0xD3A8, symBinAddr: 0x100011154, symSize: 0x40 }
  - { offsetInCU: 0x1C641, offset: 0x2B20A, size: 0x8, addend: 0x0, symName: __ZNSt3__16vectorI4MoveNS_9allocatorIS1_EEE22__base_destruct_at_endB8ue170006EPS1_, symObjAddr: 0xD3E8, symBinAddr: 0x100011194, symSize: 0x8C }
  - { offsetInCU: 0x1C685, offset: 0x2B24E, size: 0x8, addend: 0x0, symName: __ZNSt3__116allocator_traitsINS_9allocatorI4MoveEEE7destroyB8ue170006IS2_vEEvRS3_PT_, symObjAddr: 0xD474, symBinAddr: 0x100011220, symSize: 0x2C }
  - { offsetInCU: 0x1C6C2, offset: 0x2B28B, size: 0x8, addend: 0x0, symName: __ZNSt3__19allocatorI4MoveE7destroyB8ue170006EPS1_, symObjAddr: 0xD4B4, symBinAddr: 0x100011260, symSize: 0x14 }
  - { offsetInCU: 0x1C6F6, offset: 0x2B2BF, size: 0x8, addend: 0x0, symName: __ZNKSt3__16vectorI4MoveNS_9allocatorIS1_EEE31__annotate_contiguous_containerB8ue170006EPKvS6_S6_S6_, symObjAddr: 0xD4C8, symBinAddr: 0x100011274, symSize: 0x20 }
  - { offsetInCU: 0x1C74C, offset: 0x2B315, size: 0x8, addend: 0x0, symName: __ZNKSt3__16vectorI4MoveNS_9allocatorIS1_EEE4dataB8ue170006Ev, symObjAddr: 0xD4E8, symBinAddr: 0x100011294, symSize: 0x28 }
  - { offsetInCU: 0x1C772, offset: 0x2B33B, size: 0x8, addend: 0x0, symName: __ZNKSt3__16vectorI4MoveNS_9allocatorIS1_EEE4sizeB8ue170006Ev, symObjAddr: 0xD510, symBinAddr: 0x1000112BC, symSize: 0x28 }
  - { offsetInCU: 0x1C798, offset: 0x2B361, size: 0x8, addend: 0x0, symName: __ZNSt3__19allocatorI4MoveE10deallocateB8ue170006EPS1_m, symObjAddr: 0xD538, symBinAddr: 0x1000112E4, symSize: 0x44 }
  - { offsetInCU: 0x1C7DA, offset: 0x2B3A3, size: 0x8, addend: 0x0, symName: __ZNSt3__117__compressed_pairIP4MoveNS_9allocatorIS1_EEE6secondB8ue170006Ev, symObjAddr: 0xD57C, symBinAddr: 0x100011328, symSize: 0x24 }
  - { offsetInCU: 0x1C800, offset: 0x2B3C9, size: 0x8, addend: 0x0, symName: __ZNSt3__122__compressed_pair_elemINS_9allocatorI4MoveEELi1ELb1EE5__getB8ue170006Ev, symObjAddr: 0xD5A0, symBinAddr: 0x10001134C, symSize: 0x14 }
  - { offsetInCU: 0x1C826, offset: 0x2B3EF, size: 0x8, addend: 0x0, symName: __ZNKSt3__16vectorI4MoveNS_9allocatorIS1_EEE9__end_capB8ue170006Ev, symObjAddr: 0xD5B4, symBinAddr: 0x100011360, symSize: 0x28 }
  - { offsetInCU: 0x1C84C, offset: 0x2B415, size: 0x8, addend: 0x0, symName: __ZNKSt3__117__compressed_pairIP4MoveNS_9allocatorIS1_EEE5firstB8ue170006Ev, symObjAddr: 0xD5DC, symBinAddr: 0x100011388, symSize: 0x24 }
  - { offsetInCU: 0x1C872, offset: 0x2B43B, size: 0x8, addend: 0x0, symName: __ZNKSt3__122__compressed_pair_elemIP4MoveLi0ELb0EE5__getB8ue170006Ev, symObjAddr: 0xD600, symBinAddr: 0x1000113AC, symSize: 0x14 }
  - { offsetInCU: 0x1C898, offset: 0x2B461, size: 0x8, addend: 0x0, symName: __ZNSt3__16vectorI4MoveNS_9allocatorIS1_EEE9__end_capB8ue170006Ev, symObjAddr: 0xD614, symBinAddr: 0x1000113C0, symSize: 0x28 }
  - { offsetInCU: 0x1C8BE, offset: 0x2B487, size: 0x8, addend: 0x0, symName: __ZNSt3__16vectorI4MoveNS_9allocatorIS1_EEE22__construct_one_at_endB8ue170006IJRKS1_EEEvDpOT_, symObjAddr: 0xD63C, symBinAddr: 0x1000113E8, symSize: 0x90 }
  - { offsetInCU: 0x1C90D, offset: 0x2B4D6, size: 0x8, addend: 0x0, symName: __ZNSt3__16vectorI4MoveNS_9allocatorIS1_EEE21__push_back_slow_pathIRKS1_EEvOT_, symObjAddr: 0xD6CC, symBinAddr: 0x100011478, symSize: 0xD8 }
  - { offsetInCU: 0x1C96B, offset: 0x2B534, size: 0x8, addend: 0x0, symName: __ZNSt3__117__compressed_pairIP4MoveNS_9allocatorIS1_EEE5firstB8ue170006Ev, symObjAddr: 0xD7A4, symBinAddr: 0x100011550, symSize: 0x24 }
  - { offsetInCU: 0x1C991, offset: 0x2B55A, size: 0x8, addend: 0x0, symName: __ZNSt3__122__compressed_pair_elemIP4MoveLi0ELb0EE5__getB8ue170006Ev, symObjAddr: 0xD7C8, symBinAddr: 0x100011574, symSize: 0x14 }
  - { offsetInCU: 0x1C9D0, offset: 0x2B599, size: 0x8, addend: 0x0, symName: __ZNSt3__16vectorI4MoveNS_9allocatorIS1_EEE21_ConstructTransactionC1B8ue170006ERS4_m, symObjAddr: 0xD7DC, symBinAddr: 0x100011588, symSize: 0x3C }
  - { offsetInCU: 0x1CA18, offset: 0x2B5E1, size: 0x8, addend: 0x0, symName: __ZNSt3__116allocator_traitsINS_9allocatorI4MoveEEE9constructB8ue170006IS2_JRKS2_EvEEvRS3_PT_DpOT0_, symObjAddr: 0xD818, symBinAddr: 0x1000115C4, symSize: 0x34 }
  - { offsetInCU: 0x1CA6F, offset: 0x2B638, size: 0x8, addend: 0x0, symName: __ZNSt3__16vectorI4MoveNS_9allocatorIS1_EEE21_ConstructTransactionD1B8ue170006Ev, symObjAddr: 0xD84C, symBinAddr: 0x1000115F8, symSize: 0x2C }
  - { offsetInCU: 0x1CA99, offset: 0x2B662, size: 0x8, addend: 0x0, symName: __ZNSt3__16vectorI4MoveNS_9allocatorIS1_EEE21_ConstructTransactionC2B8ue170006ERS4_m, symObjAddr: 0xD878, symBinAddr: 0x100011624, symSize: 0x4C }
  - { offsetInCU: 0x1CAE1, offset: 0x2B6AA, size: 0x8, addend: 0x0, symName: __ZNSt3__19allocatorI4MoveE9constructB8ue170006IS1_JRKS1_EEEvPT_DpOT0_, symObjAddr: 0xD8C4, symBinAddr: 0x100011670, symSize: 0x34 }
  - { offsetInCU: 0x1CB37, offset: 0x2B700, size: 0x8, addend: 0x0, symName: __ZNSt3__16vectorI4MoveNS_9allocatorIS1_EEE21_ConstructTransactionD2B8ue170006Ev, symObjAddr: 0xD8F8, symBinAddr: 0x1000116A4, symSize: 0x20 }
  - { offsetInCU: 0x1CB61, offset: 0x2B72A, size: 0x8, addend: 0x0, symName: __ZNKSt3__16vectorI4MoveNS_9allocatorIS1_EEE11__recommendB8ue170006Em, symObjAddr: 0xD918, symBinAddr: 0x1000116C4, symSize: 0xB4 }
  - { offsetInCU: 0x1CBB6, offset: 0x2B77F, size: 0x8, addend: 0x0, symName: __ZNSt3__114__split_bufferI4MoveRNS_9allocatorIS1_EEEC1EmmS4_, symObjAddr: 0xD9CC, symBinAddr: 0x100011778, symSize: 0x44 }
  - { offsetInCU: 0x1CC0C, offset: 0x2B7D5, size: 0x8, addend: 0x0, symName: __ZNSt3__114__split_bufferI4MoveRNS_9allocatorIS1_EEED1Ev, symObjAddr: 0xDB20, symBinAddr: 0x1000118CC, symSize: 0x2C }
  - { offsetInCU: 0x1CC38, offset: 0x2B801, size: 0x8, addend: 0x0, symName: __ZNKSt3__16vectorI4MoveNS_9allocatorIS1_EEE8max_sizeEv, symObjAddr: 0xDB4C, symBinAddr: 0x1000118F8, symSize: 0x60 }
  - { offsetInCU: 0x1CC60, offset: 0x2B829, size: 0x8, addend: 0x0, symName: __ZNKSt3__16vectorI4MoveNS_9allocatorIS1_EEE20__throw_length_errorB8ue170006Ev, symObjAddr: 0xDBAC, symBinAddr: 0x100011958, symSize: 0x1C }
  - { offsetInCU: 0x1CC90, offset: 0x2B859, size: 0x8, addend: 0x0, symName: __ZNSt3__116allocator_traitsINS_9allocatorI4MoveEEE8max_sizeB8ue170006IS3_vEEmRKS3_, symObjAddr: 0xDBC8, symBinAddr: 0x100011974, symSize: 0x24 }
  - { offsetInCU: 0x1CCBE, offset: 0x2B887, size: 0x8, addend: 0x0, symName: __ZNKSt3__16vectorI4MoveNS_9allocatorIS1_EEE7__allocB8ue170006Ev, symObjAddr: 0xDBEC, symBinAddr: 0x100011998, symSize: 0x28 }
  - { offsetInCU: 0x1CCE4, offset: 0x2B8AD, size: 0x8, addend: 0x0, symName: __ZNKSt3__19allocatorI4MoveE8max_sizeB8ue170006Ev, symObjAddr: 0xDC14, symBinAddr: 0x1000119C0, symSize: 0x18 }
  - { offsetInCU: 0x1CD0A, offset: 0x2B8D3, size: 0x8, addend: 0x0, symName: __ZNKSt3__117__compressed_pairIP4MoveNS_9allocatorIS1_EEE6secondB8ue170006Ev, symObjAddr: 0xDC2C, symBinAddr: 0x1000119D8, symSize: 0x24 }
  - { offsetInCU: 0x1CD30, offset: 0x2B8F9, size: 0x8, addend: 0x0, symName: __ZNKSt3__122__compressed_pair_elemINS_9allocatorI4MoveEELi1ELb1EE5__getB8ue170006Ev, symObjAddr: 0xDC50, symBinAddr: 0x1000119FC, symSize: 0x14 }
  - { offsetInCU: 0x1CD56, offset: 0x2B91F, size: 0x8, addend: 0x0, symName: __ZNSt3__114__split_bufferI4MoveRNS_9allocatorIS1_EEEC2EmmS4_, symObjAddr: 0xDC64, symBinAddr: 0x100011A10, symSize: 0xE0 }
  - { offsetInCU: 0x1CDC9, offset: 0x2B992, size: 0x8, addend: 0x0, symName: __ZNSt3__117__compressed_pairIP4MoveRNS_9allocatorIS1_EEEC1B8ue170006IDnS5_EEOT_OT0_, symObjAddr: 0xDD44, symBinAddr: 0x100011AF0, symSize: 0x3C }
  - { offsetInCU: 0x1CE21, offset: 0x2B9EA, size: 0x8, addend: 0x0, symName: __ZNSt3__114__split_bufferI4MoveRNS_9allocatorIS1_EEE7__allocB8ue170006Ev, symObjAddr: 0xDDC0, symBinAddr: 0x100011B6C, symSize: 0x28 }
  - { offsetInCU: 0x1CE47, offset: 0x2BA10, size: 0x8, addend: 0x0, symName: __ZNSt3__114__split_bufferI4MoveRNS_9allocatorIS1_EEE9__end_capB8ue170006Ev, symObjAddr: 0xDDE8, symBinAddr: 0x100011B94, symSize: 0x28 }
  - { offsetInCU: 0x1CE6D, offset: 0x2BA36, size: 0x8, addend: 0x0, symName: __ZNSt3__117__compressed_pairIP4MoveRNS_9allocatorIS1_EEEC2B8ue170006IDnS5_EEOT_OT0_, symObjAddr: 0xDE10, symBinAddr: 0x100011BBC, symSize: 0x48 }
  - { offsetInCU: 0x1CEC5, offset: 0x2BA8E, size: 0x8, addend: 0x0, symName: __ZNSt3__122__compressed_pair_elemIRNS_9allocatorI4MoveEELi1ELb0EEC2B8ue170006IS4_vEEOT_, symObjAddr: 0xDE58, symBinAddr: 0x100011C04, symSize: 0x20 }
  - { offsetInCU: 0x1CF07, offset: 0x2BAD0, size: 0x8, addend: 0x0, symName: __ZNSt3__19allocatorI4MoveE8allocateB8ue170006Em, symObjAddr: 0xDE78, symBinAddr: 0x100011C24, symSize: 0x5C }
  - { offsetInCU: 0x1CF3B, offset: 0x2BB04, size: 0x8, addend: 0x0, symName: __ZNSt3__117__compressed_pairIP4MoveRNS_9allocatorIS1_EEE6secondB8ue170006Ev, symObjAddr: 0xDED4, symBinAddr: 0x100011C80, symSize: 0x28 }
  - { offsetInCU: 0x1CF61, offset: 0x2BB2A, size: 0x8, addend: 0x0, symName: __ZNSt3__122__compressed_pair_elemIRNS_9allocatorI4MoveEELi1ELb0EE5__getB8ue170006Ev, symObjAddr: 0xDEFC, symBinAddr: 0x100011CA8, symSize: 0x18 }
  - { offsetInCU: 0x1CF87, offset: 0x2BB50, size: 0x8, addend: 0x0, symName: __ZNSt3__117__compressed_pairIP4MoveRNS_9allocatorIS1_EEE5firstB8ue170006Ev, symObjAddr: 0xDF14, symBinAddr: 0x100011CC0, symSize: 0x24 }
  - { offsetInCU: 0x1CFAD, offset: 0x2BB76, size: 0x8, addend: 0x0, symName: __ZNSt3__116reverse_iteratorIP4MoveEC1B8ue170006ES2_, symObjAddr: 0xDFB0, symBinAddr: 0x100011D5C, symSize: 0x34 }
  - { offsetInCU: 0x1CFE5, offset: 0x2BBAE, size: 0x8, addend: 0x0, symName: __ZNKSt3__116reverse_iteratorIP4MoveE4baseB8ue170006Ev, symObjAddr: 0xDFE4, symBinAddr: 0x100011D90, symSize: 0x18 }
  - { offsetInCU: 0x1D00B, offset: 0x2BBD4, size: 0x8, addend: 0x0, symName: __ZNKSt3__16vectorI4MoveNS_9allocatorIS1_EEE14__annotate_newB8ue170006Em, symObjAddr: 0xE038, symBinAddr: 0x100011DE4, symSize: 0xC8 }
  - { offsetInCU: 0x1D059, offset: 0x2BC22, size: 0x8, addend: 0x0, symName: __ZNKSt3__111__move_loopINS_17_ClassicAlgPolicyEEclB8ue170006INS_16reverse_iteratorIP4MoveEES7_S7_EENS_4pairIT_T1_EES9_T0_SA_, symObjAddr: 0xE3F0, symBinAddr: 0x10001219C, symSize: 0x9C }
  - { offsetInCU: 0x1D0C9, offset: 0x2BC92, size: 0x8, addend: 0x0, symName: __ZNSt3__18_IterOpsINS_17_ClassicAlgPolicyEE11__iter_moveB8ue170006IRNS_16reverse_iteratorIP4MoveEEEENS_9enable_ifIXsr12is_referenceIDTdeclsr3stdE7declvalIRT_EEEEE5valueEDTclsr3stdE4movedeclsr3stdE7declvalISB_EEEEE4typeEOSA_, symObjAddr: 0xE620, symBinAddr: 0x1000123CC, symSize: 0x28 }
  - { offsetInCU: 0x1D0F5, offset: 0x2BCBE, size: 0x8, addend: 0x0, symName: __ZNKSt3__116reverse_iteratorIP4MoveEdeB8ue170006Ev, symObjAddr: 0xE648, symBinAddr: 0x1000123F4, symSize: 0x28 }
  - { offsetInCU: 0x1D129, offset: 0x2BCF2, size: 0x8, addend: 0x0, symName: __ZNSt3__116reverse_iteratorIP4MoveEppB8ue170006Ev, symObjAddr: 0xE670, symBinAddr: 0x10001241C, symSize: 0x20 }
  - { offsetInCU: 0x1D14F, offset: 0x2BD18, size: 0x8, addend: 0x0, symName: __ZNSt3__18_IterOpsINS_17_ClassicAlgPolicyEE25__validate_iter_referenceB8ue170006IRNS_16reverse_iteratorIP4MoveEEEEvv, symObjAddr: 0xE690, symBinAddr: 0x10001243C, symSize: 0x4 }
  - { offsetInCU: 0x1D16D, offset: 0x2BD36, size: 0x8, addend: 0x0, symName: __ZNSt3__118__unwrap_iter_implINS_16reverse_iteratorIP4MoveEELb0EE8__unwrapB8ue170006ES4_, symObjAddr: 0xE694, symBinAddr: 0x100012440, symSize: 0x24 }
  - { offsetInCU: 0x1D195, offset: 0x2BD5E, size: 0x8, addend: 0x0, symName: __ZNSt3__14pairINS_16reverse_iteratorIP4MoveEES4_EC1B8ue170006IS4_S4_LPv0EEEOT_OT0_, symObjAddr: 0xE6B8, symBinAddr: 0x100012464, symSize: 0x3C }
  - { offsetInCU: 0x1D1F4, offset: 0x2BDBD, size: 0x8, addend: 0x0, symName: __ZNSt3__14pairINS_16reverse_iteratorIP4MoveEES4_EC2B8ue170006IS4_S4_LPv0EEEOT_OT0_, symObjAddr: 0xE6F4, symBinAddr: 0x1000124A0, symSize: 0x34 }
  - { offsetInCU: 0x1D253, offset: 0x2BE1C, size: 0x8, addend: 0x0, symName: __ZNSt3__118__unwrap_iter_implINS_16reverse_iteratorIP4MoveEELb0EE8__rewrapB8ue170006ES4_S4_, symObjAddr: 0xE728, symBinAddr: 0x1000124D4, symSize: 0x2C }
  - { offsetInCU: 0x1D281, offset: 0x2BE4A, size: 0x8, addend: 0x0, symName: __ZNSt3__116reverse_iteratorIP4MoveEC2B8ue170006ES2_, symObjAddr: 0xE754, symBinAddr: 0x100012500, symSize: 0x28 }
  - { offsetInCU: 0x1D2B9, offset: 0x2BE82, size: 0x8, addend: 0x0, symName: __ZNSt3__114__split_bufferI4MoveRNS_9allocatorIS1_EEED2Ev, symObjAddr: 0xE77C, symBinAddr: 0x100012528, symSize: 0x8C }
  - { offsetInCU: 0x1D2E5, offset: 0x2BEAE, size: 0x8, addend: 0x0, symName: __ZNSt3__114__split_bufferI4MoveRNS_9allocatorIS1_EEE5clearB8ue170006Ev, symObjAddr: 0xE808, symBinAddr: 0x1000125B4, symSize: 0x28 }
  - { offsetInCU: 0x1D30B, offset: 0x2BED4, size: 0x8, addend: 0x0, symName: __ZNKSt3__114__split_bufferI4MoveRNS_9allocatorIS1_EEE8capacityB8ue170006Ev, symObjAddr: 0xE830, symBinAddr: 0x1000125DC, symSize: 0x40 }
  - { offsetInCU: 0x1D331, offset: 0x2BEFA, size: 0x8, addend: 0x0, symName: __ZNSt3__114__split_bufferI4MoveRNS_9allocatorIS1_EEE17__destruct_at_endB8ue170006EPS1_, symObjAddr: 0xE870, symBinAddr: 0x10001261C, symSize: 0x2C }
  - { offsetInCU: 0x1D365, offset: 0x2BF2E, size: 0x8, addend: 0x0, symName: __ZNSt3__114__split_bufferI4MoveRNS_9allocatorIS1_EEE17__destruct_at_endB8ue170006EPS1_NS_17integral_constantIbLb0EEE, symObjAddr: 0xE89C, symBinAddr: 0x100012648, symSize: 0x80 }
  - { offsetInCU: 0x1D3A6, offset: 0x2BF6F, size: 0x8, addend: 0x0, symName: __ZNKSt3__114__split_bufferI4MoveRNS_9allocatorIS1_EEE9__end_capB8ue170006Ev, symObjAddr: 0xE91C, symBinAddr: 0x1000126C8, symSize: 0x28 }
  - { offsetInCU: 0x1D3CC, offset: 0x2BF95, size: 0x8, addend: 0x0, symName: __ZNKSt3__117__compressed_pairIP4MoveRNS_9allocatorIS1_EEE5firstB8ue170006Ev, symObjAddr: 0xE944, symBinAddr: 0x1000126F0, symSize: 0x24 }
  - { offsetInCU: 0x1D3F2, offset: 0x2BFBB, size: 0x8, addend: 0x0, symName: __ZNSt3__16vectorI4MoveNS_9allocatorIS1_EEE11__make_iterB8ue170006EPS1_, symObjAddr: 0xE968, symBinAddr: 0x100012714, symSize: 0x30 }
  - { offsetInCU: 0x1D427, offset: 0x2BFF0, size: 0x8, addend: 0x0, symName: __ZNSt3__111__wrap_iterIP4MoveEC1B8ue170006ES2_, symObjAddr: 0xE998, symBinAddr: 0x100012744, symSize: 0x34 }
  - { offsetInCU: 0x1D45F, offset: 0x2C028, size: 0x8, addend: 0x0, symName: __ZNSt3__111__wrap_iterIP4MoveEC2B8ue170006ES2_, symObjAddr: 0xE9CC, symBinAddr: 0x100012778, symSize: 0x20 }
...
